(dp1
V\u6181
I6129
sV\u8000
I2797
sV\u6785
I7990
sV\u8604
I5677
sV\u6d89
I1157
sV\u4f0a
I1093
sV\u920c
I6794
sV\u9810
I3078
sV\u8599
I3789
sV\u4e9f
I5765
sV\u6d1e
I4
sV\u7322
I7362
sV\u5aa7
I4716
sV\u7926
I5315
sV\u9da9
I4147
sV\u6cb3
I450
sV\u9136
I7185
sV\u5438
I3459
sV\u78bb
I5796
sV\u5a3c
I4819
sV\u8ac7
I1661
sV\u53cd
I2661
sV\u724c
I4409
sV\u59d1
I1134
sV\u7850
I7985
sV\u7e54
I1714
sV\u8458
I5700
sV\u9060
I404
sV\u77e5
I33
sV\u9664
I285
sV\u7de9
I2061
sV\u5f6a
I6064
sV\u83ed
I8337
sV\u89f1
I5360
sV\u6b72
I689
sV\u52f7
I4757
sV\u58fb
I2353
sV\u777a
I7662
sV\u9bfd
I2874
sV\u5eff
I6333
sV\u8986
I1885
sV\u700b
I8404
sV\u528c
I5492
sV\u958e
I5638
sV\u5890
I6740
sV\u9b92
I5383
sV\u881b
I5735
sV\u6a9c
I1793
sV\u8e1f
I1696
sV\u5121
I6690
sV\u76a4
I3019
sV\u9a27
I5222
sV\u5d29
I964
sV\u82ac
I2276
sV\u6f35
I5516
sV\u51b6
I2350
sV\u9abc
I5133
sV\u5dbe
I8665
sV\u8141
I4447
sV\u6fca
I8670
sV\u934d
I3613
sV\u564f
I8462
sV\u75ce
I8501
sV\u9951
I3561
sV\u5c53
I6872
sV\u9f55
I5184
sV\u6e5f
I4854
sV\u7463
I1912
sV\u93e2
I6623
sV\u56e4
I5995
sV\u5ce8
I453
sV\u62ec
I4914
sV\u866f
I3161
sV\u68f0
I5795
sV\u8c73
I3996
sV\u4f75
I3218
sV\u6ef4
I863
sV\u9277
I7389
sV\u5b7d
I3671
sV\u9e7f
I1671
sV\u6081
I6887
sV\u6c89
I2672
sV\u8d08
I1830
sV\u4e0a
I112
sV\u728d
I6935
sV\u540e
I244
sV\u7891
I3233
sV\u9910
I1788
sV\u5a12
I7380
sV\u7e95
I7806
sV\u6016
I5800
sV\u8499
I721
sV\u90a1
I8157
sV\u55a3
I5520
sV\u96a5
I7171
sV\u5ba7
I7913
sV\u7826
I7770
sV\u61ab
I3395
sV\u67af
I2565
sV\u6db3
I6548
sV\u4f34
I1733
sV\u73b7
I4152
sV\u9036
I3229
sV\u963a
I7929
sV\u7fbf
I4753
sV\u6744
I7773
sV\u91cb
I4028
sV\u52cd
I5278
sV\u58d1
I372
sV\u7950
I4573
sV\u9dd3
I1433
sV\u5ed5
I5575
sV\u7f54
I4569
sV\u8558
I4908
sV\u6add
I6724
sV\u8b5c
I2907
sV\u76e5
I4365
sV\u5e6a
I6387
sV\u7076
I7419
sV\u59fb
I3788
sV\u9afd
I7049
sV\u5fff
I4309
sV\u6503
I5640
sV\u6b07
I6700
sV\u8e8a
I1269
sV\u7d13
I7152
sV\u8317
I2910
sV\u8f1f
I957
sV\u5021
I2367
sV\u71a0
I5238
sV\u77a4
I8137
sV\u9b27
I3529
sV\u5c29
I7357
sV\u83ac
I7409
sV\u6831
I4538
sV\u89b0
I4659
sV\u7439
I6639
sV\u7a3d
I3320
sV\u62c2
I1295
sV\u68c6
I7314
sV\u8c49
I7324
sV\u514b
I4560
sV\u574f
I7203
sV\u9851
I6846
sV\u5d53
I3590
sV\u80d6
I7371
sV\u695b
I6769
sV\u86da
I4816
sV\u8cde
I816
sV\u51e0
I4073
sV\u57e4
I3739
sV\u98e6
I8023
sV\u5de8
I2812
sV\u816b
I3134
sV\u876f
I8613
sV\u8d73
I8420
sV\u6ff4
I6783
sV\u6381
I3844
sV\u6585
I4206
sV\u8404
I4230
sV\u8e08
I6684
sV\u900c
I8173
sV\u7b91
I5906
sV\u9a10
I7149
sV\u8799
I7752
sV\u93a1
I7607
sV\u95a5
I5863
sV\u7b26
I781
sV\u62ab
I513
sV\u872e
I4751
sV\u6eb3
I6785
sV\u8932
I6823
sV\u70b7
I2111
sV\u7abb
I3586
sV\u9f3e
I7630
sV\u6240
I1115
sV\u92cb
I3101
sV\u51cd
I2079
sV\u704c
I3451
sV\u7c54
I8657
sV\u67d9
I6317
sV\u4f5e
I3241
sV\u5162
I3038
sV\u7fe9
I2433
sV\u81ed
I5063
sV\u676e
I4316
sV\u4ef3
I7312
sV\u757a
I8423
sV\u5cff
I7144
sV\u7f7e
I3528
sV\u6603
I5544
sV\u8182
I5204
sV\u4e88
I1303
sV\u8d8a
I222
sV\u5c94
I6897
sV\u8017
I3502
sV\u6698
I5849
sV\u8a1b
I3442
sV\u5321
I3607
sV\u5f29
I3609
sV\u80ac
I8086
sV\u8ab0
I75
sV\u6d35
I7407
sV\u8cb4
I650
sV\u7739
I7744
sV\u96b8
I3912
sV\u793d
I8660
sV\u98bc
I802
sV\u61c2
I6643
sV\u6bc6
I4498
sV\u8f49
I331
sV\u524b
I5806
sV\u914d
I2535
sV\u9b51
I4110
sV\u9d55
I5583
sV\u83d6
I2188
sV\u6a5b
I1791
sV\u6c5f
I587
sV\u52e0
I8115
sV\u54e4
I6862
sV\u5ee8
I5044
sV\u826b
I4218
sV\u846f
I7179
sV\u8e73
I7254
sV\u9077
I2109
sV\u76f8
I399
sV\u597d
I918
sV\u8300
I5664
sV\u6485
I5976
sV\u6e89
I5275
sV\u8f08
I3540
sV\u560e
I5988
sV\u7a91
I8004
sV\u9b10
I3003
sV\u7c95
I6186
sV\u6216
I3506
sV\u889d
I6516
sV\u57a3
I2637
sV\u9ea9
I7098
sV\u63ab
I6250
sV\u7c2a
I525
sV\u65af
I348
sV\u6fb3
I5728
sV\u8832
I1033
sV\u943a
I4634
sV\u7dbf
I382
sV\u714c
I2324
sV\u7b50
I1922
sV\u66d9
I1035
sV\u8758
I7239
sV\u895c
I2215
sV\u4e5e
I3250
sV\u72e1
I3870
sV\u9360
I2515
sV\u5a66
I1658
sV\u80ed
I1481
sV\u666e
I4485
sV\u8af1
I3416
sV\u4ff3
I6825
sV\u8cf5
I7593
sV\u96f9
I4630
sV\u747a
I7410
sV\u98fd
I2975
sV\u5dff
I7464
sV\u7e7e
I2491
sV\u6703
I199
sV\u6907
I8303
sV\u4f88
I3921
sV\u8c8a
I4546
sV\u300d
I6427
sV\u968e
I1537
sV\u5d94
I4935
sV\u8117
I5924
sV\u6798
I7075
sV\u8b1b
I3035
sV\u699c
I2976
sV\u73a0
I3083
sV\u9723
I8234
sV\u9927
I5243
sV\u5e29
I7612
sV\u7fa8
I1246
sV\u6c35
I8622
sV\u5ebe
I2733
sV\u8445
I5112
sV\u8e49
I2697
sV\u6cca
I1465
sV\u904d
I807
sV\u554f
I1206
sV\u76ce
I6235
sV\u6b5b
I1925
sV\u6d5f
I6033
sV\u7763
I3742
sV\u90e2
I3063
sV\u55e4
I3374
sV\u7967
I5391
sV\u9ae6
I4425
sV\u6bf0
I5711
sV\u9177
I3021
sV\u9d7f
I7776
sV\u6581
I4559
sV\u8204
I5821
sV\u8808
I6085
sV\u778d
I3960
sV\u9c10
I7582
sV\u5f12
I7199
sV\u7b95
I3575
sV\u6516
I7122
sV\u95a1
I5366
sV\u7722
I7289
sV\u5ea7
I2793
sV\u64ab
I2244
sV\u68b3
I1881
sV\u76b7
I8265
sV\u7cbb
I3712
sV\u7abf
I5983
sV\u993e
I8227
sV\u80c3
I4426
sV\u6244
I8674
sV\u6848
I3513
sV\u92cf
I5810
sV\u5dd1
I5702
sV\u7c50
I6205
sV\u8058
I4087
sV\u8e5c
I7552
sV\u75e1
I4462
sV\u9460
I2768
sV\u73e5
I2306
sV\u9264
I1443
sV\u79e9
I1008
sV\u87ed
I5916
sV\u616e
I2700
sV\u8df1
I6319
sV\u56f7
I3903
sV\u7576
I506
sV\u5cfb
I999
sV\u737a
I3257
sV\u8782
I6645
sV\u8b8a
I903
sV\u568c
I5303
sV\u918e
I7760
sV\u5c90
I2283
sV\u8617
I6187
sV\u6e9c
I1504
sV\u8a1f
I3030
sV\u74a0
I5182
sV\u9023
I1148
sV\u5929
I119
sV\u78a8
I5054
sV\u672d
I1017
sV\u6d31
I7553
sV\u8cb0
I2902
sV\u4fb2
I7138
sV\u6b35
I2592
sV\u90b8
I3456
sV\u7f3d
I5574
sV\u9ebc
I5354
sV\u59be
I1742
sV\u67c2
I7252
sV\u8345
I1045
sV\u6dc6
I7877
sV\u6bca
I8120
sV\u524f
I4803
sV\u71ce
I3516
sV\u9d51
I1974
sV\u7fd2
I2747
sV\u85d6
I8409
sV\u6c5b
I7170
sV\u6a5f
I2178
sV\u7063
I1780
sV\u52e4
I890
sV\u9de6
I4683
sV\u846b
I5986
sV\u66ec
I3621
sV\u826f
I440
sV\u6cf0
I3009
sV\u9677
I3285
sV\u5179
I7429
sV\u8500
I6750
sV\u8304
I6975
sV\u7a95
I1726
sV\u9b14
I8037
sV\u6416
I714
sV\u621a
I3369
sV\u8e9d
I7306
sV\u7622
I5811
sV\u5fa7
I678
sV\u7c26
I6938
sV\u65ab
I3313
sV\u77b7
I7888
sV\u9436
I2486
sV\u7dbb
I1310
sV\u5f3c
I4495
sV\u6344
I7816
sV\u95cb
I4508
sV\u7d50
I1319
sV\u7b54
I2784
sV\u60d9
I8687
sV\u8f5c
I6916
sV\u5662
I7570
sV\u72e5
I4383
sV\u9364
I5469
sV\u5a6a
I6562
sV\u86ed
I5493
sV\u6e72
I1145
sV\u8af5
I6840
sV\u57f7
I2138
sV\u7476
I8591
sV\u9efd
I4639
sV\u787e
I5408
sV\u750b
I7576
sV\u578c
I4738
sV\u7913
I8072
sV\u9e92
I2618
sV\u6198
I8492
sV\u8d1b
I6159
sV\u8b1f
I7514
sV\u9123
I4391
sV\u5225
I708
sV\u79a8
I5716
sV\u662d
I1010
sV\u87ac
I4769
sV\u6a35
I727
sV\u7039
I5470
sV\u7e3d
I1119
sV\u58be
I5282
sV\u8245
I5780
sV\u4f47
I1716
sV\u6cc6
I7116
sV\u8849
I3891
sV\u964d
I1089
sV\u9a55
I1668
sV\u84d6
I7331
sV\u6d5b
I8147
sV\u4fdc
I4019
sV\u6b5f
I4278
sV\u96e2
I1484
sV\u53e4
I465
sV\u59e8
I5339
sV\u9aea
I2852
sV\u67ec
I8751
sV\u6df0
I8386
sV\u9777
I6802
sV\u5e7d
I27
sV\u7ffc
I16
sV\u8600
I6604
sV\u8004
I5911
sV\u6b89
I6385
sV\u8a08
I779
sV\u7f91
I5489
sV\u9e10
I6501
sV\u5d12
I5020
sV\u7995
I8336
sV\u9814
I7664
sV\u4e9b
I1606
sV\u611a
I2717
sV\u52a3
I4224
sV\u7522
I2710
sV\u91a5
I5389
sV\u5ca7
I1265
sV\u66ab
I1533
sV\u792a
I4590
sV\u4e30
I5681
sV\u6ab3
I1989
sV\u9736
I5934
sV\u5238
I5818
sV\u5c3c
I2837
sV\u6640
I7441
sV\u6044
I4106
sV\u8cc7
I3396
sV\u6a48
I1752
sV\u96cb
I5886
sV\u55cd
I8611
sV\u7e50
I5321
sV\u9ad3
I1085
sV\u8258
I3202
sV\u6ddd
I5407
sV\u71e5
I4830
sV\u5f66
I7880
sV\u7be9
I4799
sV\u596a
I3121
sV\u636e
I6482
sV\u89f5
I5954
sV\u93f9
I7029
sV\u5efb
I3447
sV\u9dfd
I7817
sV\u6203
I6884
sV\u898a
I6601
sV\u548c
I703
sV\u700f
I6030
sV\u9d92
I1936
sV\u6298
I1727
sV\u881f
I1740
sV\u76a0
I8092
sV\u6f31
I3339
sV\u8eb0
I8298
sV\u6935
I7996
sV\u88b4
I2342
sV\u51ba
I8424
sV\u65c2
I2625
sV\u6fc6
I2781
sV\u8b49
I2882
sV\u69ca
I2935
sV\u504f
I673
sV\u73ce
I8639
sV\u7dd2
I1629
sV\u9955
I5857
sV\u87d6
I8628
sV\u6e5b
I4437
sV\u81da
I6717
sV\u56e0
I631
sV\u95e2
I3006
sV\u7c67
I8661
sV\u866b
I7623
sV\u99ea
I5299
sV\u64ec
I367
sV\u806f
I733
sV\u8a73
I6201
sV\u9477
I3765
sV\u5379
I5037
sV\u72f8
I4953
sV\u5d7d
I5060
sV\u8700
I1860
sV\u6085
I4047
sV\u6a89
I4082
sV\u520e
I5482
sV\u7e91
I6565
sV\u9f10
I4968
sV\u7895
I5895
sV\u9914
I3113
sV\u8299
I1804
sV\u4f9b
I2701
sV\u8c9d
I2846
sV\u6a1e
I2745
sV\u7422
I4116
sV\u5da7
I2913
sV\u61af
I6847
sV\u4f30
I3939
sV\u6bb3
I5165
sV\u79bf
I4371
sV\u9a3e
I5426
sV\u6144
I4107
sV\u6b48
I4079
sV\u97cb
I3070
sV\u754c
I470
sV\u91cf
I930
sV\u7f50
I7977
sV\u58d5
I2879
sV\u7954
I7626
sV\u62d9
I2863
sV\u6cdd
I1529
sV\u76e1
I696
sV\u9760
I5438
sV\u5462
I7754
sV\u9164
I2430
sV\u6c72
I3169
sV\u55f7
I4209
sV\u5ffb
I3658
sV\u707a
I1732
sV\u59ff
I686
sV\u7a7e
I7318
sV\u6303
I7857
sV\u8482
I4337
sV\u770b
I551
sV\u558c
I8545
sV\u5f90
I2432
sV\u7b13
I8738
sV\u8517
I5152
sV\u6398
I4939
sV\u77a0
I7671
sV\u5025
I6878
sV\u9d27
I6145
sV\u5a29
I5760
sV\u642d
I5639
sV\u8fb0
I2123
sV\u56b6
I5753
sV\u7239
I8176
sV\u50ba
I7808
sV\u7c3d
I6211
sV\u9dbc
I8249
sV\u5abe
I2682
sV\u64c2
I7578
sV\u574b
I6520
sV\u68ca
I2860
sV\u72ce
I4535
sV\u7cd2
I5727
sV\u6557
I2435
sV\u6f5b
I173
sV\u80da
I5547
sV\u9ee6
I2112
sV\u5be8
I4608
sV\u98ea
I8186
sV\u65ec
I3264
sV\u816f
I8526
sV\u9577
I493
sV\u7dfc
I4395
sV\u8800
I3359
sV\u5d0e
I1067
sV\u9010
I1530
sV\u8d99
I2951
sV\u6f1a
I2693
sV\u5ca3
I6013
sV\u7126
I2040
sV\u95a9
I4268
sV\u68ab
I8398
sV\u6eaf
I7690
sV\u8332
I726
sV\u5c38
I4208
sV\u523c
I6586
sV\u76bf
I8038
sV\u6840
I4505
sV\u8cc3
I6163
sV\u6e44
I2439
sV\u98cb
I5077
sV\u9ecf
I1938
sV\u51d1
I6552
sV\u6dd9
I854
sV\u4f5a
I4478
sV\u7fe5
I2292
sV\u9468
I7675
sV\u576a
I7609
sV\u6d6e
I624
sV\u6372
I2903
sV\u7976
I8440
sV\u9df9
I2884
sV\u50fb
I4191
sV\u93fd
I7255
sV\u56ff
I3155
sV\u6c03
I7093
sV\u6207
I3185
sV\u8a17
I1224
sV\u74a8
I3780
sV\u6735
I2077
sV\u86b4
I7645
sV\u7d39
I4263
sV\u92bc
I7221
sV\u8941
I3681
sV\u8f45
I741
sV\u8549
I1494
sV\u584b
I5286
sV\u9b4d
I5069
sV\u605b
I8152
sV\u665f
I7472
sV\u58e0
I4189
sV\u9be2
I4614
sV\u7267
I2750
sV\u91e6
I3271
sV\u54e8
I6533
sV\u886b
I1382
sV\u6aec
I2924
sV\u60f0
I4952
sV\u8473
I4143
sV\u66f4
I847
sV\u72fc
I279
sV\u6881
I428
sV\u9b0c
I4709
sV\u5c0e
I1019
sV\u5212
I8369
sV\u9714
I8197
sV\u6816
I4298
sV\u8c99
I3309
sV\u6e1a
I1455
sV\u829d
I766
sV\u9ea5
I1980
sV\u7026
I8242
sV\u8232
I5242
sV\u533c
I5263
sV\u77bf
I2150
sV\u6f44
I6506
sV\u83c7
I8515
sV\u6548
I482
sV\u7b4c
I4943
sV\u50d1
I4870
sV\u95d3
I6657
sV\u6cd9
I7865
sV\u5a62
I4247
sV\u566a
I2452
sV\u8aed
I5504
sV\u4fef
I1240
sV\u80f1
I6544
sV\u57ff
I5287
sV\u747e
I4483
sV\u4f84
I4026
sV\u6307
I983
sV\u8086
I3294
sV\u868a
I4236
sV\u5b8c
I5078
sV\u5190
I7544
sV\u7513
I5604
sV\u8b17
I3129
sV\u6d98
I6318
sV\u811b
I4124
sV\u5821
I5094
sV\u9d23
I1434
sV\u5e25
I3815
sV\u7fa4
I4062
sV\u6031
I1840
sV\u6635
I6118
sV\u7c39
I3889
sV\u723d
I3436
sV\u6ac2
I958
sV\u60c6
I1572
sV\u8449
I426
sV\u9a4d
I2991
sV\u9051
I1049
sV\u5553
I37
sV\u72d2
I6299
sV\u6b57
I7213
sV\u675f
I1639
sV\u7d63
I6729
sV\u5fe4
I3920
sV\u896b
I5599
sV\u96ea
I9
sV\u6bec
I1832
sV\u67f4
I2408
sV\u5c79
I4975
sV\u527d
I5099
sV\u977f
I7892
sV\u8a00
I1202
sV\u6d85
I7127
sV\u6789
I1704
sV\u798d
I216
sV\u980c
I377
sV\u9210
I4732
sV\u5112
I610
sV\u7595
I7369
sV\u9414
I3814
sV\u6b16
I7361
sV\u6d1a
I7812
sV\u819d
I926
sV\u671e
I7130
sV\u752a
I5875
sV\u5e38
I1705
sV\u503c
I2216
sV\u74bf
I6346
sV\u973e
I4547
sV\u8ec3
I6389
sV\u6fd9
I5040
sV\u7be1
I4471
sV\u5962
I3381
sV\u5366
I2665
sV\u77e9
I5920
sV\u6f6e
I1837
sV\u83f1
I2305
sV\u52fb
I1947
sV\u7d7a
I4367
sV\u8386
I7503
sV\u7a0b
I1717
sV\u858a
I3119
sV\u7c0f
I3763
sV\u9192
I1574
sV\u5494
I6500
sV\u6e98
I5839
sV\u821b
I5808
sV\u7aa0
I1495
sV\u7ca4
I6617
sV\u4fae
I5148
sV\u82b0
I2336
sV\u5bb6
I76
sV\u5dba
I264
sV\u8b41
I1648
sV\u4e43
I298
sV\u63c6
I4987
sV\u994d
I3740
sV\u5c4f
I1243
sV\u7fce
I4948
sV\u5653
I3053
sV\u71d2
I562
sV\u4ed8
I2548
sV\u625b
I6857
sV\u8dda
I7908
sV\u645f
I4680
sV\u5ae0
I5708
sV\u7e63
I6917
sV\u99e2
I4027
sV\u7067
I6036
sV\u93e6
I6715
sV\u8a6b
I1313
sV\u64f4
I8191
sV\u5f79
I2190
sV\u947f
I888
sV\u8b00
I3068
sV\u6c85
I4075
sV\u8d04
I6688
sV\u6689
I1519
sV\u788d
I7676
sV\u990c
I3261
sV\u9310
I3774
sV\u5012
I746
sV\u809d
I2736
sV\u661e
I8490
sV\u7822
I4720
sV\u96a9
I5515
sV\u6bab
I792
sV\u742a
I1921
sV\u6daf
I1900
sV\u67b3
I3631
sV\u79b7
I5615
sV\u9a36
I48
sV\u5f38
I8496
sV\u73bb
I6123
sV\u513c
I3419
sV\u6d44
I7475
sV\u6748
I5336
sV\u58cd
I5996
sV\u52d1
I6463
sV\u7350
I6613
sV\u97d3
I2468
sV\u7554
I1540
sV\u8f58
I6053
sV\u60dd
I6370
sV\u5862
I2463
sV\u76e9
I7150
sV\u9768
I1927
sV\u546a
I3764
sV\u6e6e
I3790
sV\u82f1
I255
sV\u7a76
I838
sV\u7c7a
I5280
sV\u90fd
I2000
sV\u767e
I648
sV\u8882
I1073
sV\u8286
I8603
sV\u7b0b
I2949
sV\u7d0f
I6351
sV\u5594
I2547
sV\u4e19
I6686
sV\u6f98
I4656
sV\u851f
I6340
sV\u7ba0
I5679
sV\u9127
I3162
sV\u89ac
I5059
sV\u4eae
I2274
sV\u7e39
I1344
sV\u91bc
I4044
sV\u56be
I8165
sV\u8a41
I6569
sV\u4f43
I6593
sV\u62c6
I1908
sV\u64ca
I1691
sV\u984d
I1933
sV\u9455
I5769
sV\u6957
I6289
sV\u8ad6
I897
sV\u4fd8
I4885
sV\u8cda
I5720
sV\u5be0
I5065
sV\u7f63
I7120
sV\u98e2
I2985
sV\u7167
I400
sV\u69ec
I8700
sV\u63f0
I7697
sV\u5e79
I3697
sV\u71fc
I1709
sV\u7591
I1130
sV\u9410
I7436
sV\u5712
I1355
sV\u7395
I2045
sV\u9214
I6176
sV\u611e
I8407
sV\u9da1
I4947
sV\uff22
I7317
sV\u7526
I6620
sV\u6cab
I861
sV\u732a
I3259
sV\u8732
I6790
sV\u7eb7
I7795
sV\u563c
I8223
sV\u6c40
I2161
sV\u6a44
I7360
sV\u86c7
I3376
sV\u5fcd
I1359
sV\u9acf
I5194
sV\u8858
I8273
sV\u67dd
I3435
sV\u865c
I1633
sV\u7de1
I4887
sV\u9c60
I2905
sV\u5f62
I108
sV\u7be5
I5361
sV\u9a64
I1688
sV\u9068
I4260
sV\u8fed
I5327
sV\u696e
I3511
sV\u6772
I3547
sV\u5ef7
I3279
sV\u7d76
I7483
sV\u52ff
I2556
sV\u6607
I1120
sV\u7c0b
I4554
sV\u838a
I3025
sV\u7a0f
I6727
sV\u821f
I1277
sV\u9627
I8326
sV\u6f2d
I2761
sV\u8eac
I1023
sV\u98b8
I5558
sV\u773d
I3354
sV\u96bc
I3041
sV\u6fc2
I8292
sV\u65c6
I5102
sV\u5c4b
I402
sV\u5053
I5717
sV\u8dd6
I3718
sV\u645b
I5518
sV\u50e8
I8636
sV\u8c6b
I4376
sV\u6eec
I7969
sV\u8073
I3230
sV\u5979
I8569
sV\u76fc
I1890
sV\u927f
I7999
sV\u6c81
I4823
sV\u8b04
I7896
sV\u6089
I3149
sV\u8108
I1392
sV\u7e8d
I5050
sV\u9f0c
I5395
sV\u5612
I3232
sV\u4f97
I7092
sV\u8899
I7611
sV\u7e22
I2966
sV\u7426
I6640
sV\u722a
I3316
sV\u6baf
I5776
sV\u882e
I7498
sV\u5938
I5804
sV\u75bb
I7614
sV\u903e
I3637
sV\u87c7
I6072
sV\u6148
I3243
sV\u7f4c
I6858
sV\u7550
I8155
sV\u52d5
I701
sV\u68d9
I7327
sV\u66dd
I2961
sV\u9d60
I2568
sV\u5e62
I596
sV\u7ae5
I2663
sV\u5466
I5398
sV\u526a
I2171
sV\u686e
I3228
sV\u84f1
I8555
sV\u7a7a
I84
sV\u53ff
I8154
sV\u707e
I4988
sV\u7d0b
I2347
sV\u828a
I2441
sV\u5f8c
I100
sV\u7b0f
I1652
sV\u8f17
I8245
sV\u6998
I7837
sV\u679c
I2427
sV\u7da0
I843
sV\u5a25
I656
sV\u9727
I412
sV\u5029
I2629
sV\u71a8
I3373
sV\u6e2d
I1367
sV\u85b0
I2181
sV\u50be
I1057
sV\u8c41
I1079
sV\u6ec2
I2029
sV\u5d4b
I4706
sV\u62ca
I4949
sV\u78ce
I5167
sV\u9451
I4150
sV\u76d2
I8689
sV\u8cd6
I7736
sV\u80de
I6578
sV\u5be4
I4127
sV\u8d6b
I229
sV\u92ea
I1321
sV\u6fec
I5739
sV\u8b6f
I3175
sV\u65f0
I276
sV\u8173
I2790
sV\u63f4
I2953
sV\u9f77
I4487
sV\u5879
I3802
sV\u79f8
I6808
sV\u77fc
I7982
sV\u6f81
I4444
sV\u6389
I3957
sV\u8208
I948
sV\u7d8d
I3674
sV\u9c0c
I3210
sV\u7791
I3483
sV\u9014
I2742
sV\u8b99
I5496
sV\u859d
I4386
sV\u7d22
I1378
sV\u99a5
I910
sV\u7726
I6789
sV\u93a9
I5351
sV\u6eab
I2680
sV\u68af
I2236
sV\u8532
I6291
sV\u76bb
I6971
sV\u993a
I7905
sV\u543c
I3293
sV\u4fc1
I4020
sV\u6844
I2422
sV\u6248
I3743
sV\u5dcd
I3944
sV\u7c4c
I2549
sV\u8a58
I6412
sV\u7fe1
I1699
sV\u5766
I4275
sV\u73e9
I6616
sV\u6572
I2327
sV\u9bf9
I8432
sV\u797a
I7158
sV\u4e80
I7876
sV\u8d82
I2164
sV\u8786
I7060
sV\u7e0b
I3998
sV\u818a
I5455
sV\u5c8c
I5115
sV\u5690
I7637
sV\u9592
I2756
sV\u649c
I8127
sV\u9a23
I5591
sV\u5925
I7484
sV\u72a8
I7722
sV\u8cac
I3731
sV\u6731
I411
sV\u86b0
I8284
sV\u80b4
I5538
sV\u9ab8
I3582
sV\u753d
I7866
sV\u8349
I684
sV\u61ca
I2021
sV\u584f
I7142
sV\u75d2
I8071
sV\u9155
I4784
sV\u6c57
I1641
sV\u665b
I8514
sV\u89da
I6784
sV\u605f
I8085
sV\u5ee0
I8756
sV\u58e4
I3700
sV\u6cec
I3968
sV\u66f0
I180
sV\u60f4
I7295
sV\u9c77
I6883
sV\u967b
I7177
sV\u907f
I157
sV\u8f00
I6005
sV\u6885
I1406
sV\u6289
I5319
sV\u8308
I8626
sV\u5412
I5153
sV\u9114
I7058
sV\uff5b
I8600
sV\u621e
I7055
sV\u5ba3
I3163
sV\u55a7
I2314
sV\u7626
I2049
sV\u7db7
I7290
sV\u77bb
I4094
sV\u553c
I3368
sV\u4ec1
I2467
sV\u6f40
I8699
sV\u99cf
I6835
sV\u56d1
I4814
sV\u50d5
I3449
sV\u4e56
I2321
sV\u8b58
I739
sV\u9f60
I5908
sV\u5c62
I840
sV\u78e5
I7303
sV\u5666
I4372
sV\u72e9
I4603
sV\u506a
I4452
sV\u8ced
I1722
sV\u5df7
I1620
sV\u9af9
I6816
sV\u727e
I7709
sV\u6b03
I3736
sV\u8c82
I2543
sV\u7313
I8538
sV\u6b98
I976
sV\u659c
I1312
sV\u9b23
I2212
sV\u5229
I931
sV\u6631
I7489
sV\u6035
I5106
sV\u81b4
I4128
sV\u5eb6
I1294
sV\u7a39
I7547
sV\u58ba
I8532
sV\u95bc
I3565
sV\u52be
I5160
sV\u8e41
I4461
sV\u6cc2
I7963
sV\u8845
I7784
sV\u66c6
I4113
sV\u60ca
I6665
sV\u9c4d
I5210
sV\u594f
I1043
sV\u9651
I3988
sV\u5353
I1913
sV\u9055
I1515
sV\u615f
I3475
sV\u82de
I2512
sV\u5fe0
I2749
sV\u7b63
I8737
sV\u59e4
I7433
sV\u7567
I258
sV\u53e8
I473
sV\u90ea
I7323
sV\u6dec
I4103
sV\u896f
I2262
sV\u67f0
I6525
sV\u8373
I4292
sV\u9d77
I4098
sV\u7bf8
I1918
sV\u547d
I161
sV\u75fc
I3895
sV\u7181
I6138
sV\u9000
I2296
sV\u7d89
I7700
sV\u5f0a
I4423
sV\u820c
I2245
sV\u8810
I2252
sV\u8e14
I6192
sV\u9599
I8148
sV\u771a
I7136
sV\u70ab
I3269
sV\u6f2a
I534
sV\u5830
I3601
sV\u7cb3
I4290
sV\u9b32
I7025
sV\u873a
I4369
sV\u7040
I7587
sV\u9ac7
I7598
sV\u5dc9
I3193
sV\u6850
I1218
sV\u8cd3
I1419
sV\u6e54
I3999
sV\u5156
I3462
sV\u7bdd
I5491
sV\u61e1
I6711
sV\u67e5
I4831
sV\u8664
I7702
sV\u6de9
I4096
sV\u4f6a
I6020
sV\u756e
I8215
sV\u99f1
I5229
sV\u7b72
I6638
sV\u6176
I2980
sV\u85f9
I768
sV\u4eff
I5026
sV\u5080
I6689
sV\u7403
I4992
sV\u5684
I6815
sV\u5c88
I1232
sV\u660f
I736
sV\u6c13
I5713
sV\u8b92
I3187
sV\u4e94
I34
sV\u7498
I6051
sV\u5b1d
I8350
sV\u60a0
I786
sV\u8a27
I8472
sV\u732d
I8755
sV\u55ae
I2083
sV\u7931
I5444
sV\u9eb4
I2200
sV\u6539
I1603
sV\u84b8
I132
sV\u6b3d
I4494
sV\u8abc
I3588
sV\u5443
I6286
sV\u73c2
I2895
sV\u7fca
I3981
sV\u834d
I7126
sV\u65ce
I2370
sV\u6bd2
I2880
sV\u7257
I2848
sV\u5adc
I5137
sV\u83e2
I8257
sV\u8fea
I5536
sV\u536d
I7830
sV\u8277
I6498
sV\u7081
I6683
sV\u9100
I7532
sV\u9704
I319
sV\u5806
I1946
sV\u7c89
I1619
sV\u9d08
I1903
sV\u5e0a
I8570
sV\u830c
I7569
sV\u8910
I1772
sV\u8f14
I3510
sV\u7016
I8062
sV\u7c1e
I5454
sV\u80a1
I1934
sV\u6222
I5091
sV\u8ca9
I3965
sV\u942e
I5208
sV\u7db3
I7166
sV\u8036
I1985
sV\u69bb
I2998
sV\u863a
I4789
sV\u50c1
I7037
sV\u95c3
I5036
sV\u56c5
I5834
sV\u7744
I7870
sV\u5cc9
I4618
sV\u87cf
I5785
sV\u4ed5
I3016
sV\u6f54
I2437
sV\u7add
I1817
sV\u60e1
I1505
sV\u8160
I8070
sV\u8764
I2251
sV\u92ed
I6472
sV\u98f1
I814
sV\u5df3
I4330
sV\u84f9
I6499
sV\u667a
I259
sV\u6c7e
I2529
sV\u3001
I5932
sV\u5180
I1244
sV\u7503
I2471
sV\u7b07
I8061
sV\u670f
I7042
sV\u4f94
I5168
sV\u7b9c
I3296
sV\u9f1f
I8499
sV\u8523
I4270
sV\u67a4
I8648
sV\u722d
I1427
sV\u93ac
I5670
sV\u7e35
I4142
sV\u6a3d
I2757
sV\u9041
I4307
sV\u72c2
I1745
sV\u9c49
I4609
sV\u64ce
I2269
sV\u8e55
I3744
sV\u7357
I7242
sV\u795b
I4399
sV\u7f5f
I4342
sV\u6563
I539
sV\u82e2
I5892
sV\u6b67
I3463
sV\u8377
I510
sV\u897b
I6828
sV\u5102
I1451
sV\u7f89
I3837
sV\u618d
I8295
sV\u800c
I3840
sV\u6b91
I8431
sV\u8a10
I3717
sV\u6d95
I531
sV\u7316
I2403
sV\u5a9b
I3487
sV\u751a
I2365
sV\u6d2a
I2719
sV\u502c
I7450
sV\u972e
I6012
sV\u8336
I2804
sV\u6abb
I1408
sV\u6cbf
I898
sV\u8f3e
I5409
sV\u53c1
I7348
sV\u7240
I1613
sV\u55c5
I3603
sV\u98c7
I6759
sV\u5fc9
I5885
sV\u604c
I3816
sV\u84cf
I7629
sV\u6a50
I3653
sV\u6c54
I8425
sV\u9658
I4014
sV\u5f5e
I7457
sV\u63e1
I1877
sV\u65e5
I66
sV\u6fe9
I1755
sV\u91ed
I1917
sV\u5ef3
I3851
sV\u7972
I4748
sV\u6376
I5000
sV\u87f9
I1782
sV\u657a
I6962
sV\u6f7e
I7294
sV\u5280
I8725
sV\u7603
I8717
sV\u5484
I4161
sV\u9d8a
I5722
sV\u640f
I851
sV\u9017
I2497
sV\u64a4
I4843
sV\u8827
I3871
sV\u712d
I8535
sV\u7b31
I5889
sV\u9ab0
I6067
sV\u59b2
I5114
sV\u7d35
I2273
sV\u693d
I2722
sV\u71c2
I6243
sV\u7bc6
I2240
sV\u7dca
I2229
sV\u67ce
I6373
sV\u93d6
I6696
sV\u56d8
I8328
sV\u95da
I8066
sV\u58dc
I2904
sV\u7c5f
I3509
sV\u8dea
I4231
sV\u516d
I1255
sV\u5b71
I3448
sV\u7cf4
I4493
sV\u8077
I309
sV\u66f8
I591
sV\u68fc
I3212
sV\u7281
I5629
sV\u9300
I8642
sV\u5002
I4193
sV\u7485
I5650
sV\u9f08
I3876
sV\u5c0a
I543
sV\u608d
I5293
sV\u6a91
I6546
sV\u8b10
I4501
sV\u8d14
I5368
sV\u5197
I4855
sV\u9699
I4368
sV\u5b9b
I1301
sV\u741a
I5553
sV\u7e1e
I5223
sV\u82a1
I5029
sV\u8ea9
I5450
sV\u73ab
I2425
sV\u962e
I1915
sV\u5b30
I2662
sV\u5d34
I8502
sV\u8236
I5364
sV\u6bbb
I2971
sV\u6dbf
I4971
sV\u52c1
I4794
sV\u97c3
I2802
sV\u5ec9
I3705
sV\u614c
I6885
sV\u85cf
I865
sV\u6b50
I5276
sV\u8fd3
I5525
sV\u5256
I3953
sV\u9758
I4578
sV\u78dd
I5797
sV\u995c
I4759
sV\u5e5e
I8078
sV\u64e5
I8683
sV\u8564
I4144
sV\u53eb
I2455
sV\u90ed
I1222
sV\u6276
I974
sV\u86f9
I8089
sV\u647a
I6023
sV\u88fd
I2544
sV\u9082
I4763
sV\u5584
I3433
sV\u5f88
I6811
sV\u650f
I2039
sV\u6f13
I152
sV\u8892
I5004
sV\u9b1b
I7052
sV\u581d
I7430
sV\u799c
I7299
sV\u9d1f
I3579
sV\u63a0
I2328
sV\u8723
I6477
sV\u65a4
I3431
sV\u8927
I7178
sV\u6fa8
I5777
sV\u91ac
I5645
sV\u56ae
I2514
sV\u7a31
I884
sV\u7c35
I5788
sV\u9db4
I409
sV\u683d
I2202
sV\u89bc
I8685
sV\u5947
I647
sV\u7cca
I2620
sV\u4f53
I6348
sV\u68d2
I3481
sV\u8c55
I5632
sV\u7157
I6144
sV\u59dc
I3627
sV\u9ede
I1503
sV\u8ae6
I4937
sV\u8cea
I1346
sV\u71ec
I5289
sV\u7df4
I2495
sV\u8177
I6763
sV\u67f8
I8177
sV\u8b7b
I8480
sV\u7385
I6736
sV\u5d06
I4675
sV\u7989
I8618
sV\u9808
I641
sV\u678d
I3982
sV\u5697
I4623
sV\u7516
I5332
sV\u5a9f
I6519
sV\u89a9
I1245
sV\u74ab
I340
sV\u562c
I8111
sV\u72af
I1854
sV\u912e
I7726
sV\u5c30
I8087
sV\u6cbb
I2667
sV\u6abf
I8050
sV\u893e
I7111
sV\u55c1
I6334
sV\u7440
I4796
sV\u90c3
I7151
sV\u59c9
I8686
sV\u84cb
I194
sV\u664c
I1541
sV\u6c50
I7148
sV\u88d3
I7026
sV\u5556
I4239
sV\u9058
I3924
sV\u535a
I2086
sV\u65e1
I8644
sV\u8460
I8705
sV\u8264
I4544
sV\u69e9
I7367
sV\u8868
I1223
sV\u97ed
I3604
sV\u716e
I2732
sV\u7f72
I1014
sV\u637a
I7086
sV\u8ffd
I301
sV\u5480
I5925
sV\u7003
I6046
sV\u5284
I7193
sV\u9d86
I8627
sV\u5f1d
I6278
sV\u7e9c
I2309
sV\u8e27
I8213
sV\u68a8
I1937
sV\u772d
I6969
sV\u7d31
I4492
sV\u80b8
I4563
sV\u5043
I1050
sV\u9949
I6739
sV\u7bca
I7986
sV\u7657
I6931
sV\u95d6
I6122
sV\u7c5b
I7215
sV\u93da
I6359
sV\u7a5f
I5338
sV\u99de
I3527
sV\u6063
I881
sV\u87e2
I7703
sV\u6e67
I5003
sV\u76ec
I7516
sV\u7cf0
I5940
sV\u60f8
I5707
sV\u4f7d
I6693
sV\u8a7f
I7550
sV\u7481
I2218
sV\u9304
I1650
sV\u668d
I5256
sV\u8d10
I5693
sV\u8b14
I3882
sV\u5797
I8594
sV\u7416
I660
sV\u9099
I4008
sV\u5d9b
I7128
sV\u721a
I5699
sV\u9e9d
I1710
sV\u84a1
I8625
sV\u82a5
I5938
sV\u75ab
I4043
sV\u6a2a
I7745
sV\u902e
I3471
sV\u79b3
I4468
sV\u5b34
I3962
sV\u67b7
I4767
sV\u4f3c
I103
sV\u6bbf
I324
sV\u883e
I8141
sV\u54c1
I2476
sV\u91c3
I7946
sV\u52c5
I3557
sV\u7344
I2978
sV\u7948
I501
sV\u85cb
I5415
sV\u674c
I3734
sV\u83cf
I8057
sV\u6b54
I5117
sV\u70d9
I8166
sV\u585e
I490
sV\u64e1
I2133
sV\u96ed
I4072
sV\u53ef
I384
sV\u9af5
I6344
sV\u6476
I3077
sV\u5384
I5252
sV\u808e
I7268
sV\u8e92
I7012
sV\u5019
I2031
sV\u9d1b
I1360
sV\u5e1d
I717
sV\u7f9c
I8741
sV\u9b1f
I1472
sV\u8123
I2060
sV\u8f27
I4323
sV\u97ac
I3654
sV\u8fbc
I8663
sV\u5143
I306
sV\u76c2
I2010
sV\u9245
I4951
sV\u7aca
I1258
sV\u60ce
I8266
sV\u8a55
I3747
sV\u7757
I6865
sV\u51d8
I7281
sV\u7d5b
I5401
sV\u6163
I1777
sV\u8ce6
I1958
sV\u566d
I5130
sV\u77ec
I8132
sV\u5c71
I120
sV\u7bf4
I6776
sV\u61f8
I294
sV\u9004
I7826
sV\u840c
I3479
sV\u8e10
I2552
sV\u6995
I3214
sV\u8814
I6889
sV\u711a
I1127
sV\u589f
I1276
sV\u7b1e
I5490
sV\u6522
I810
sV\u6f26
I3997
sV\u542c
I5088
sV\u70af
I5119
sV\u932e
I2707
sV\u7ab3
I8307
sV\u5834
I1251
sV\u6ebb
I6142
sV\u8b3e
I2149
sV\u92c3
I5083
sV\u80cf
I7343
sV\u6854
I4281
sV\u73d9
I8088
sV\u515a
I7064
sV\u7ddd
I5649
sV\u736e
I5744
sV\u7d72
I1399
sV\u4efb
I679
sV\u8dfd
I6899
sV\u5680
I5947
sV\u9582
I7753
sV\u7c07
I2080
sV\u600f
I3970
sV\u838e
I2257
sV\u6a13
I1175
sV\u5319
I4996
sV\u9e1b
I3076
sV\u981f
I4853
sV\u66a0
I8183
sV\u60a4
I1480
sV\u9eb0
I8013
sV\u5db2
I8704
sV\u6339
I1040
sV\u82b8
I767
sV\u6d3d
I1092
sV\u8cbc
I1425
sV\u9741
I5969
sV\u5243
I4783
sV\u9145
I7551
sV\u63ce
I5457
sV\u6dd2
I1920
sV\u7457
I5043
sV\u52d8
I2906
sV\u6263
I2413
sV\u6c67
I5270
sV\u8fe6
I5633
sV\u906f
I5085
sV\u5f71
I526
sV\u78f4
I4063
sV\u8477
I5272
sV\u8e7b
I6830
sV\u887f
I3014
sV\u7681
I1682
sV\u9700
I6081
sV\u7085
I5961
sV\u9104
I5757
sV\u5e06
I1170
sV\u9b08
I8467
sV\u580a
I5945
sV\u850c
I8520
sV\u7616
I6198
sV\u9299
I7269
sV\u701a
I4777
sV\u86a1
I6386
sV\u6422
I4589
sV\u80a5
I1766
sV\u6e26
I5068
sV\u682a
I2787
sV\u71af
I6961
sV\u5f30
I5820
sV\u7bb3
I8680
sV\u9c32
I3260
sV\u65b7
I256
sV\u69bf
I7319
sV\u8a3e
I3318
sV\u56c1
I7579
sV\u7740
I4211
sV\u93c3
I1905
sV\u50c5
I5417
sV\u9dc7
I4997
sV\u5ac9
I4601
sV\u7b48
I7747
sV\u87cb
I4660
sV\u81cf
I6290
sV\u6954
I6634
sV\u72d9
I3706
sV\u505a
I7222
sV\u7cdd
I6845
sV\u9d5c
I3683
sV\u66e1
I8052
sV\u8760
I26
sV\u6ae9
I5730
sV\u7c72
I6632
sV\u6676
I801
sV\u82f9
I6781
sV\u8cfd
I1977
sV\u7d07
I1820
sV\u5b88
I782
sV\u670b
I92
sV\u610f
I88
sV\u828e
I8171
sV\u9f1b
I6996
sV\u7d9c
I4542
sV\u61a4
I3097
sV\u742d
I8469
sV\u95ac
I3378
sV\u7e31
I1776
sV\u99b4
I3219
sV\u8dbc
I5306
sV\u9641
I6502
sV\u5343
I705
sV\u5d47
I3017
sV\u78ca
I4439
sV\u62ce
I6602
sV\u96d6
I403
sV\u7f5b
I4271
sV\u795f
I5371
sV\u976b
I7233
sV\u7ff0
I1091
sV\u5875
I625
sV\u8577
I5162
sV\u6dfc
I4291
sV\u897f
I1168
sV\u7981
I1363
sV\u7f85
I628
sV\u5106
I7566
sV\u6b8d
I7391
sV\u6191
I848
sV\u8010
I1583
sV\u6795
I1548
sV\uff1a
I5579
sV\u939d
I5643
sV\u751e
I7696
sV\u89a1
I6039
sV\u85a9
I5635
sV\u672a
I107
sV\u5a2c
I8764
sV\u5030
I7416
sV\u9332
I3909
sV\u5634
I5984
sV\u8936
I6306
sV\u853e
I6432
sV\u5fc5
I1065
sV\u7e44
I4677
sV\u55c9
I7057
sV\u88cb
I5108
sV\u8ecf
I8246
sV\u6050
I1196
sV\u84d3
I6748
sV\u73dd
I7751
sV\u555e
I4445
sV\u8e64
I1080
sV\u65e9
I389
sV\u58eb
I1136
sV\u7d6e
I1462
sV\u91f1
I8702
sV\u54f3
I7567
sV\u7372
I3337
sV\u97f5
I3213
sV\u6f7a
I1144
sV\u83fd
I5382
sV\u5880
I2275
sV\u7c03
I7781
sV\u5e84
I7459
sV\u7207
I2241
sV\u9186
I2429
sV\u5488
I3961
sV\u6413
I5424
sV\u8392
I8654
sV\u9a17
I8360
sV\u5d19
I2919
sV\u7c98
I3811
sV\u531d
I3425
sV\u68a0
I7656
sV\u7b2d
I7960
sV\u5dae
I697
sV\u7131
I7565
sV\u53b2
I492
sV\u7735
I6876
sV\u96b4
I2380
sV\u6d39
I7176
sV\u8cb8
I4305
sV\u633d
I4436
sV\u82bc
I6890
sV\u9941
I5801
sV\u7bc2
I8681
sV\u9f45
I1508
sV\u5247
I313
sV\u8b4d
I4272
sV\u4e4f
I3482
sV\u8151
I5379
sV\u63d2
I2582
sV\u8755
I3618
sV\u7a57
I1966
sV\u99d6
I7135
sV\u95de
I6367
sV\u4ee4
I1131
sV\u986b
I1543
sV\u87ea
I2174
sV\u5171
I567
sV\u5775
I6591
sV\u76f4
I2076
sV\u62fc
I7350
sV\u7881
I2826
sV\u5006
I6079
sV\u7489
I5298
sV\u8b0c
I6003
sV\u5b97
I1662
sV\u7e1a
I2410
sV\u79ab
I6410
sV\u662a
I7901
sV\u7faf
I3535
sV\u75b3
I8172
sV\u6bb7
I857
sV\u8836
I2125
sV\u67bf
I4053
sV\u58c1
I793
sV\u7940
I1012
sV\u9dc3
I4802
sV\u5ec5
I8297
sV\u7f44
I4537
sV\u93c7
I5456
sV\u54c9
I1165
sV\u6b4c
I687
sV\u545e
I6853
sV\u8960
I5935
sV\u8f64
I1521
sV\u8568
I4652
sV\u9aed
I3584
sV\u7c6e
I6132
sV\u7272
I4012
sV\u6876
I7338
sV\u82fd
I6780
sV\u7d03
I8205
sV\u5588
I4862
sV\u968a
I1448
sV\u6f0f
I1567
sV\u8c8e
I3760
sV\u8292
I3201
sV\u7d98
I7183
sV\u521d
I89
sV\u6fa4
I713
sV\u65a8
I8724
sV\u7a2d
I8104
sV\u7635
I4809
sV\u97b4
I2318
sV\u4eba
I78
sV\u623d
I6136
sV\u83bc
I6345
sV\u5d43
I7939
sV\u5347
I1291
sV\u76ca
I2563
sV\u4f4f
I1164
sV\u6cce
I7490
sV\u62d2
I4390
sV\u8655
I623
sV\u5dd8
I3379
sV\u775f
I5714
sV\u6d63
I2586
sV\u6367
I1061
sV\u5a6d
I2243
sV\u9f6f
I8323
sV\u8b77
I2208
sV\u9a00
I5237
sV\u5306
I4228
sV\u4f0e
I2404
sV\u8210
I3905
sV\u6595
I5480
sV\u7b16
I7859
sV\u529b
I573
sV\u7d1a
I3273
sV\u652a
I4078
sV\u5230
I296
sV\u9132
I4407
sV\u5434
I7887
sV\u4e38
I2656
sV\u64bf
I3464
sV\u873e
I5919
sV\u7a40
I3902
sV\u9ec3
I778
sV\u90c7
I7344
sV\u8acb
I1982
sV\u6250
I7353
sV\u71dd
I5611
sV\u905c
I3350
sV\u6be1
I7764
sV\u8a60
I3071
sV\u6de5
I1446
sV\u67e9
I7132
sV\u5aeb
I7211
sV\u99ed
I859
sV\u5cef
I2792
sV\u7f6e
I3773
sV\u8ff9
I1271
sV\u677e
I757
sV\u6c0f
I1289
sV\u6613
I442
sV\u9817
I1930
sV\u7e98
I3993
sV\u6aa0
I3548
sV\u8e23
I5006
sV\u66a8
I3833
sV\u5fae
I590
sV\u7331
I4723
sV\u51b2
I6483
sV\u613d
I8304
sV\u9b41
I4741
sV\u5e43
I1565
sV\u5047
I2036
sV\u9749
I6167
sV\u75ca
I4924
sV\u894d
I7354
sV\u6fce
I7966
sV\u8351
I4318
sV\u8555
I6526
sV\u9bd6
I3751
sV\u725b
I879
sV\u50dc
I8498
sV\u745f
I1826
sV\u97de
I3331
sV\u6067
I5316
sV\u85ea
I2777
sV\u596d
I6115
sV\u78ec
I1870
sV\u5371
I732
sV\u9673
I1513
sV\u74f4
I3265
sV\u8877
I1021
sV\u6ef8
I4913
sV\u7a81
I3865
sV\u5802
I327
sV\u5206
I212
sV\u9708
I3197
sV\u540a
I6196
sV\u890c
I4295
sV\u4e0e
I7920
sV\u6291
I4826
sV\u6495
I3500
sV\u8514
I4387
sV\u559f
I998
sV\u761e
I4669
sV\u8aa1
I4811
sV\u6822
I3523
sV\u86a9
I4112
sV\u642a
I5352
sV\u592c
I8112
sV\u7daf
I7693
sV\u77b3
I4238
sV\u9032
I2683
sV\u69b7
I7451
sV\u8a36
I2253
sV\u4f38
I4666
sV\u63bb
I5856
sV\u8c3a
I6668
sV\u65bf
I5413
sV\u5ac1
I1342
sV\u7d44
I784
sV\u91c7
I1896
sV\u56c9
I6237
sV\u8dcf
I5894
sV\u6350
I4123
sV\u6554
I8672
sV\u70dd
I5141
sV\u565e
I5958
sV\u6ce5
I1383
sV\u8d64
I2901
sV\u66e9
I4700
sV\u8768
I5318
sV\u5beb
I995
sV\u98ed
I4287
sV\u57f3
I5764
sV\u8ef9
I6360
sV\u6c7a
I3995
sV\u80fd
I406
sV\u5d84
I5355
sV\u6d0f
I7131
sV\u6713
I2973
sV\u9917
I6722
sV\u5e19
I3227
sV\u782d
I5623
sV\u99ac
I35
sV\u93b0
I5580
sV\u50b2
I434
sV\u7435
I2087
sV\u95b4
I7321
sV\u9a41
I6957
sV\u5147
I3741
sV\u74ca
I1526
sV\u884d
I3714
sV\u6ece
I3235
sV\u8251
I7030
sV\u7957
I1659
sV\u9ad6
I7928
sV\u5fd8
I754
sV\u51dc
I2364
sV\u96de
I1440
sV\u6167
I4827
sV\u82e6
I102
sV\u84ea
I7291
sV\u79ec
I6383
sV\u9d6f
I6941
sV\u9773
I3186
sV\u5475
I1889
sV\u4e79
I8763
sV\u837b
I1789
sV\u61fc
I3496
sV\u5f02
I4504
sV\u9a04
I5380
sV\u9008
I4274
sV\u530a
I5146
sV\u6f8d
I7123
sV\u6591
I622
sV\u8410
I7161
sV\u8214
I7237
sV\u5e97
I2984
sV\u9999
I669
sV\u529f
I248
sV\u6f22
I743
sV\u81a9
I1967
sV\u5e2c
I2058
sV\u7aaf
I6217
sV\u992e
I7339
sV\u5430
I6925
sV\u70b3
I822
sV\u9732
I42
sV\u6eb7
I6654
sV\u64bb
I1108
sV\u813e
I3326
sV\u7c40
I7155
sV\u98c3
I8443
sV\u5bc5
I2648
sV\u96c7
I5871
sV\u51c9
I6487
sV\u6e4c
I7283
sV\u8acf
I5428
sV\u6450
I1693
sV\u6254
I7383
sV\u9858
I503
sV\u5b5a
I6112
sV\u77dd
I8572
sV\u965c
I7352
sV\u6de1
I692
sV\uff3d
I6445
sV\u4ef7
I8589
sV\u617e
I150
sV\u7607
I8525
sV\u5088
I3887
sV\u6c0b
I7094
sV\u4e8c
I15
sV\u6a0f
I7048
sV\u5919
I3626
sV\u571d
I8287
sV\u769c
I7782
sV\u8627
I4521
sV\u60a8
I8268
sV\u7531
I485
sV\u6939
I6096
sV\u673d
I3861
sV\u9d41
I2134
sV\u9b45
I1184
sV\u5647
I6588
sV\u75c6
I8106
sV\u9149
I5206
sV\u73ca
I1564
sV\u8f4d
I3054
sV\u69ce
I2947
sV\u67d2
I6570
sV\u9dd6
I4067
sV\u58d8
I2167
sV\u745b
I6050
sV\u725f
I4859
sV\u8fe2
I1962
sV\u6667
I7446
sV\u5f6d
I712
sV\u5375
I2531
sV\u72f4
I3856
sV\u66fc
I2896
sV\u5e02
I1811
sV\u7a85
I4967
sV\u520a
I3986
sV\u6491
I5419
sV\u6295
I2541
sV\u5f97
I578
sV\u7a1a
I4036
sV\u969d
I8619
sV\u539f
I487
sV\u8ca1
I4382
sV\u6e22
I8391
sV\u8aa5
I3783
sV\u6426
I2387
sV\u80a9
I1139
sV\u7dab
I2821
sV\u622a
I3189
sV\u982e
I8485
sV\u71b3
I2085
sV\u9632
I2576
sV\u8a3a
I7359
sV\u63bf
I7610
sV\u7d40
I7189
sV\u99c3
I5144
sV\u50c9
I6116
sV\u8dcb
I3852
sV\u4ecd
I1176
sV\u9958
I7008
sV\u5a5a
I3409
sV\u76dd
I8690
sV\u975c
I281
sV\u6ce1
I5936
sV\u6ae5
I7937
sV\u5deb
I1352
sV\u786e
I7731
sV\u7672
I5378
sV\u6c76
I4893
sV\u88f9
I2005
sV\u9e82
I7775
sV\u5b84
I7443
sV\u7707
I3835
sV\u3009
I6443
sV\u6d0b
I1689
sV\u6b0f
I8540
sV\u888e
I8347
sV\u9f17
I7528
sV\u5819
I6486
sV\u8923
I7581
sV\u6ba4
I4180
sV\u61a8
I6245
sV\u7e2d
I6866
sV\u58ae
I1880
sV\u7431
I4361
sV\u56b2
I1389
sV\u7235
I1646
sV\u6839
I633
sV\u9a45
I2842
sV\u5747
I437
sV\u9049
I8709
sV\u8451
I5573
sV\u755b
I6804
sV\u57dc
I6949
sV\u6963
I6287
sV\u7fec
I6807
sV\u9b6f
I2938
sV\u5471
I5721
sV\u75f0
I7377
sV\u5275
I812
sV\u9e00
I7275
sV\u7389
I191
sV\u6791
I5791
sV\u8014
I6839
sV\u6726
I1372
sV\u83a9
I3415
sV\u78af
I8312
sV\u9b2e
I7632
sV\u8f36
I4276
sV\u53c9
I3978
sV\u7248
I5170
sV\u8ecb
I2560
sV\u88cf
I1174
sV\u82d3
I3660
sV\u5f56
I5373
sV\u7bd9
I4636
sV\u595a
I1082
sV\u535e
I2856
sV\u6fe1
I3324
sV\u8e60
I7036
sV\u69e5
I7019
sV\u8864
I7431
sV\u63e9
I6137
sV\u8268
I3177
sV\u58ef
I922
sV\u7b6e
I5506
sV\u52f3
I3356
sV\u91f5
I664
sV\u5e80
I8198
sV\u9d82
I7311
sV\u5884
I5608
sV\u7407
I7927
sV\u5288
I1999
sV\u8b8e
I3779
sV\u5b19
I6166
sV\u7a98
I4489
sV\u749c
I4761
sV\u901f
I3600
sV\u6ea0
I4350
sV\u8a23
I2657
sV\u62a8
I5915
sV\u5bae
I322
sV\u96b0
I4686
sV\u90b4
I4099
sV\u4fb6
I1204
sV\u6b39
I941
sV\u84bc
I834
sV\u9f41
I8739
sV\u9945
I7711
sV\u5447
I8383
sV\u9349
I7406
sV\u4e4b
I45
sV\u65d2
I2196
sV\u8155
I1984
sV\u93de
I4674
sV\u6467
I3099
sV\u81ea
I96
sV\u986f
I3485
sV\u5771
I1142
sV\u5175
I220
sV\u6af8
I7320
sV\u867b
I7809
sV\u807f
I5774
sV\u7e81
I4735
sV\u9904
I7695
sV\u5606
I3662
sV\u6c8d
I5147
sV\u6691
I858
sV\u6095
I8586
sV\u579b
I7512
sV\u721e
I6038
sV\u8ea1
I2235
sV\u82a9
I6322
sV\u602a
I676
sV\u9a2e
I2377
sV\u5730
I71
sV\u73b3
I1828
sV\u6db7
I6323
sV\u67bb
I5145
sV\u5ec1
I4095
sV\u58c5
I6080
sV\u95c7
I1147
sV\u52c9
I1098
sV\u6750
I1104
sV\u83d3
I4056
sV\u9b58
I4722
sV\u585a
I2231
sV\u525e
I6065
sV\u8964
I6792
sV\u5feb
I1450
sV\u7a6e
I6940
sV\u53f3
I512
sV\u7472
I8178
sV\u90f5
I3538
sV\u84fd
I4277
sV\u5f80
I1286
sV\u5984
I4469
sV\u9686
I3847
sV\u5388
I8605
sV\u908a
I1122
sV\u690f
I7993
sV\u7b98
I5787
sV\u541d
I3499
sV\u6fa0
I5396
sV\u69a4
I8352
sV\u63a8
I241
sV\u9dac
I5172
sV\u5aae
I5752
sV\u54b2
I6538
sV\u7035
I7787
sV\u91b4
I4516
sV\u4eb6
I7921
sV\u6a39
I466
sV\u643d
I7660
sV\u5b43
I3539
sV\u76c6
I3554
sV\u9249
I6751
sV\u64d2
I3135
sV\u9ed6
I8504
sV\u5bd8
I6735
sV\u775b
I3830
sV\u98da
I8595
sV\u55dc
I149
sV\u92de
I7933
sV\u4fe0
I3848
sV\u6b63
I1203
sV\u8ce2
I155
sV\u6567
I5135
sV\u86e6
I3360
sV\u5c6d
I5369
sV\u7dec
I2398
sV\u5671
I7508
sV\u77f0
I3304
sV\u9373
I8635
sV\u5075
I6818
sV\u8d77
I966
sV\u6bf8
I5712
sV\u817f
I6584
sV\u6302
I1182
sV\u8a87
I2570
sV\u6906
I8133
sV\u968f
I8190
sV\u750e
I4289
sV\u6297
I4384
sV\u6e9f
I2105
sV\u9020
I233
sV\u74a3
I1723
sV\u6e34
I907
sV\u95b9
I7084
sV\u58bb
I3390
sV\u7a3c
I4076
sV\u67c5
I8010
sV\u8946
I6277
sV\u73cd
I477
sV\u524c
I2461
sV\u79d1
I2800
sV\u7fd5
I5215
sV\u5e54
I2469
sV\u82d7
I2982
sV\u88db
I1609
sV\u8edf
I2926
sV\u6d5e
I4754
sV\u51e1
I905
sV\u9ae7
I8210
sV\u7f6a
I2773
sV\u8870
I921
sV\u6cf3
I2337
sV\u8e74
I4234
sV\u72f7
I3948
sV\u5176
I1838
sV\u78fb
I2889
sV\u8101
I4264
sV\u6684
I3401
sV\u6c88
I1428
sV\u500b
I3546
sV\u560f
I6356
sV\u9911
I7997
sV\u7890
I8428
sV\u9f15
I4183
sV\u7e94
I1178
sV\u6519
I5951
sV\u6b1d
I7476
sV\u7121
I20
sV\u7725
I4136
sV\u5ca8
I5512
sV\u862f
I7309
sV\u65ae
I6952
sV\u6bb2
I4302
sV\u983b
I1560
sV\u7dbe
I2295
sV\u86c4
I2175
sV\u8cc8
I3012
sV\u4fca
I3098
sV\u92cc
I7063
sV\u764f
I8481
sV\u7c53
I7903
sV\u5bd2
I386
sV\u9ed4
I142
sV\u8559
I2307
sV\u64d8
I3617
sV\u6adc
I6770
sV\u4e5f
I654
sV\u9161
I5430
sV\u76e4
I542
sV\u9d69
I2862
sV\u636d
I6859
sV\u7579
I3420
sV\u9dfe
I8765
sV\u918b
I6652
sV\u528d
I2932
sV\u978f
I3020
sV\u5e95
I799
sV\u699b
I3899
sV\u6f9f
I6705
sV\u9120
I2892
sV\u75a3
I5235
sV\u9724
I5979
sV\u5826
I690
sV\u9d28
I1803
sV\u82ad
I1493
sV\u6930
I2428
sV\u6f34
I4074
sV\u7538
I3651
sV\u59bb
I2920
sV\u8846
I365
sV\u6cc9
I469
sV\u8e4a
I811
sV\u78d1
I6151
sV\u5950
I6408
sV\u665a
I970
sV\u6c5e
I5841
sV\u7262
I2706
sV\u5ce9
I4354
sV\u7e6a
I5612
sV\u67ef
I2868
sV\u6df3
I144
sV\u5076
I1748
sV\u79fb
I521
sV\u7fff
I6343
sV\u8001
I643
sV\u6180
I1948
sV\u8605
I4149
sV\u6d88
I1555
sV\u510b
I4929
sV\u920d
I3753
sV\u9811
I4311
sV\u9e15
I3073
sV\u7f94
I4000
sV\u8096
I5761
sV\u6a1d
I4728
sV\u8c9e
I1135
sV\u7021
I8740
sV\u51a0
I454
sV\u7625
I7006
sV\u57a4
I4009
sV\u7c29
I8726
sV\u5da8
I8084
sV\u812b
I609
sV\u9eaa
I5273
sV\u872f
I3647
sV\u64ae
I4030
sV\u5439
I395
sV\u993b
I7559
sV\u76ba
I1501
sV\u7cbe
I31
sV\u81c0
I7114
sV\u87c4
I38
sV\u6b47
I1414
sV\u4eca
I830
sV\u93cc
I3661
sV\u99d0
I916
sV\u7d53
I6404
sV\u9061
I7028
sV\u71e0
I5847
sV\u5563
I6647
sV\u7de8
I2255
sV\u626d
I7749
sV\u84ee
I425
sV\u8af2
I7509
sV\u55f8
I7577
sV\u96fa
I8101
sV\u7a7d
I3248
sV\u6d0a
I6128
sV\u518d
I232
sV\u300c
I6426
sV\u770e
I6963
sV\u9e93
I4879
sV\u7912
I7785
sV\u5d95
I7840
sV\u8618
I7067
sV\u78a7
I336
sV\u5d2a
I5053
sV\u4eb3
I7533
sV\u8db5
I8519
sV\u6c34
I55
sV\u50b7
I613
sV\u97b9
I6300
sV\u63c1
I8547
sV\u65c5
I2890
sV\u6fc9
I6349
sV\u4e48
I5353
sV\u5a50
I8217
sV\u9952
I496
sV\u80d7
I7368
sV\u6356
I6589
sV\u8adb
I5680
sV\u6f5e
I5914
sV\u53e1
I2840
sV\u96e3
I99
sV\u7162
I5903
sV\u55e5
I6040
sV\u98e7
I5015
sV\u7b66
I4202
sV\u5fe9
I3855
sV\u7d6a
I5540
sV\u64ef
I5831
sV\u8a70
I3849
sV\u9678
I2723
sV\u5f7e
I6648
sV\u8301
I7621
sV\u6280
I5257
sV\u8f09
I2034
sV\u6e88
I3486
sV\u540f
I1753
sV\u5e13
I8109
sV\u7c94
I7336
sV\u8396
I1895
sV\u859a
I6637
sV\u52a0
I1006
sV\u91a2
I5113
sV\u7525
I3857
sV\u54a4
I6401
sV\u5ea8
I6987
sV\u822b
I2415
sV\u842f
I7786
sV\u67ae
I8493
sV\u7fbe
I8208
sV\u6643
I2628
sV\u84c4
I4248
sV\u724b
I2246
sV\u57ce
I69
sV\u9ad0
I7020
sV\u59d2
I5448
sV\u8759
I25
sV\u72e0
I6721
sV\u5663
I8219
sV\u74e4
I6148
sV\u9f69
I4599
sV\u7779
I3645
sV\u58fc
I8579
sV\u8783
I8508
sV\u8987
I5798
sV\u4e89
I7886
sV\u6c0a
I5030
sV\u508d
I975
sV\u958f
I3413
sV\u7812
I7424
sV\u8718
I3411
sV\u6b9b
I5435
sV\u4e1e
I2965
sV\u5022
I5220
sV\u79a7
I6677
sV\u80ad
I8718
sV\u612c
I3315
sV\u6d34
I8769
sV\u51b7
I524
sV\u96b9
I7175
sV\u7738
I1351
sV\u64c5
I3295
sV\u8a46
I5340
sV\u6ec9
I5549
sV\u4f48
I8264
sV\u514c
I2704
sV\u7ad1
I7358
sV\u5b50
I550
sV\u9852
I2381
sV\u5d54
I7779
sV\u8ddf
I6817
sV\u6e5e
I6978
sV\u97e3
I7902
sV\u54e5
I2517
sV\u5ee9
I4889
sV\u8b70
I2447
sV\u8d74
I1681
sV\u9778
I7223
sV\u5e7e
I60
sV\u8201
I5853
sV\u6380
I5950
sV\u8e09
I6171
sV\u6f88
I1187
sV\u530b
I8621
sV\u900d
I1275
sV\u550f
I6180
sV\u9a11
I1101
sV\u7b90
I8387
sV\u5f13
I2224
sV\u9c15
I6107
sV\u681d
I4269
sV\u8e9e
I1670
sV\u53a0
I6530
sV\u90a2
I6439
sV\u7425
I2385
sV\u9aa6
I5048
sV\u5fa8
I5570
sV\u832b
I1365
sV\u852f
I7310
sV\u66ae
I423
sV\u8f33
I7628
sV\u68b2
I5866
sV\u5639
I4346
sV\u9b3b
I4482
sV\u74ba
I6152
sV\u9d3f
I3167
sV\u83c0
I5824
sV\u91cc
I81
sV\u754f
I2741
sV\u58d2
I6105
sV\u9dd4
I6953
sV\u8659
I7604
sV\u67d8
I1806
sV\u885d
I1855
sV\u69dc
I7900
sV\u73e0
I321
sV\u5967
I2675
sV\u606d
I1013
sV\u6702
I8068
sV\u8e87
I4394
sV\u6b0a
I1687
sV\u5b95
I2831
sV\u6697
I845
sV\u8018
I3576
sV\u6c9b
I1684
sV\u8e1c
I8361
sV\u6a9f
I6398
sV\u5722
I8529
sV\u5d26
I3211
sV\u5b2a
I1592
sV\u87ad
I2993
sV\u662c
I7910
sV\u5abf
I674
sV\u65c1
I2192
sV\u8b4a
I5719
sV\u77cd
I3195
sV\u564c
I6924
sV\u914e
I3591
sV\u7dd1
I8439
sV\u5c50
I1075
sV\u9f52
I614
sV\u6556
I3722
sV\u4fdd
I1309
sV\u695e
I942
sV\u7762
I4255
sV\u53e5
I2721
sV\u9ee7
I5349
sV\u7d66
I3183
sV\u64eb
I8684
sV\u866c
I748
sV\u62ef
I3991
sV\u68f3
I7704
sV\u9078
I2841
sV\u7cfb
I3724
sV\u9e7c
I7651
sV\u7aff
I1449
sV\u8305
I2557
sV\u6284
I4232
sV\u8909
I6469
sV\u970d
I3144
sV\u8596
I5799
sV\u7325
I4910
sV\u58a8
I2914
sV\u9baa
I4336
sV\u61ae
I7351
sV\u9c3b
I4982
sV\u79be
I2876
sV\u84c0
I911
sV\u6043
I3573
sV\u744b
I7070
sV\u96cc
I1992
sV\u5fd2
I4570
sV\u9ad4
I1336
sV\u60d8
I3244
sV\u8f5d
I5833
sV\u74e0
I989
sV\u78e8
I720
sV\u676d
I1836
sV\u81ee
I6651
sV\u50f8
I8207
sV\u7f7d
I3192
sV\u5efc
I5613
sV\u6602
I4320
sV\u958b
I7
sV\u6a0a
I4532
sV\u700e
I8474
sV\u5c91
I1231
sV\u5a95
I6851
sV\u6797
I341
sV\u8f1c
I4858
sV\u9928
I1426
sV\u672c
I1955
sV\u8ab5
I7746
sV\u5dbb
I7756
sV\u9ebd
I2518
sV\u5bbf
I1559
sV\u64c1
I849
sV\u62c5
I8279
sV\u8c46
I1919
sV\u68c9
I1993
sV\u76cd
I6798
sV\u574c
I7206
sV\u904e
I846
sV\u5d50
I3623
sV\u5b54
I2008
sV\u8ddb
I3875
sV\u4edd
I6185
sV\u54e1
I4856
sV\u91e3
I1770
sV\u7662
I5312
sV\u7c66
I8734
sV\u8d70
I1109
sV\u69f3
I2532
sV\u8b74
I5066
sV\u5476
I6060
sV\u9178
I3333
sV\u7dfb
I5907
sV\u527a
I5079
sV\u7bff
I8713
sV\u587e
I6434
sV\u8401
I6352
sV\u8205
I3858
sV\u6384
I5521
sV\u4f07
I7442
sV\u778c
I7561
sV\u530f
I4557
sV\u9a15
I5007
sV\u7b94
I1376
sV\u6019
I6947
sV\u829a
I6161
sV\u6e1d
I2754
sV\u889e
I5447
sV\u7421
I8652
sV\u59a8
I3349
sV\u852b
I6015
sV\u832f
I3659
sV\u60ae
I6551
sV\u6eb2
I8752
sV\u9d3b
I1171
sV\u5e3d
I2513
sV\u78be
I2264
sV\u754b
I4933
sV\u50ce
I6251
sV\u7953
I3594
sV\u6fdc
I8058
sV\u73e4
I6362
sV\u5f67
I7405
sV\u80ee
I6860
sV\u51f8
I5952
sV\u7e7d
I5751
sV\u5ffc
I7278
sV\u98fe
I4869
sV\u8283
I6131
sV\u6502
I4647
sV\u6f06
I3399
sV\u968b
I716
sV\u558d
I7079
sV\u908f
I3216
sV\u5f91
I986
sV\u8218
I7196
sV\u689f
I3928
sV\u9024
I4981
sV\u7ca7
I3664
sV\u5f26
I1461
sV\u592a
I589
sV\u642c
I6650
sV\u8fb1
I2442
sV\u6e30
I7618
sV\u6834
I4731
sV\u54b7
I5064
sV\u67c1
I5218
sV\u61c5
I7085
sV\u8f46
I1520
sV\u75cd
I5097
sV\u544c
I3281
sV\u9d52
I2820
sV\u79d5
I6737
sV\u5854
I2839
sV\u6756
I1230
sV\u8edb
I4438
sV\u615a
I3723
sV\u88df
I4364
sV\u92e3
I4963
sV\u7562
I896
sV\u9ce7
I1132
sV\u7f66
I7015
sV\u5be9
I2668
sV\u846c
I197
sV\u8e70
I7613
sV\u6af3
I1471
sV\u74f7
I5854
sV\u9278
I7307
sV\u5b7e
I6143
sV\u8105
I3093
sV\u6084
I1949
sV\u500f
I1300
sV\u7894
I5610
sV\u8796
I8008
sV\u819a
I2311
sV\u8b9e
I6703
sV\u7721
I7482
sV\u95a2
I8633
sV/
I5676
sV\u6db2
I2653
sV\u77b6
I6906
sV\u5339
I2627
sV\u71ba
I8225
sV\u5d3d
I4705
sV\u7bbe
I6288
sV\u86c0
I6624
sV\u6243
I1576
sV\u80c4
I3786
sV\u9ed0
I8449
sV\u5dd2
I182
sV\u98d4
I7836
sV\u62d8
I3000
sV\u6cdc
I7548
sV\u9761
I4048
sV\u9165
I1876
sV\u5c67
I5205
sV\u656d
I6155
sV\u4ef0
I808
sV\u6975
I163
sV\u97f6
I1437
sV\u7379
I5499
sV\u52f8
I1960
sV\u9bfe
I8495
sV\u978b
I1539
sV\u548d
I4903
sV\u9b93
I4261
sV\u6597
I878
sV\u8318
I5420
sV\u8d1c
I7505
sV\u9720
I8113
sV\u9b28
I7620
sV\u582a
I657
sV\u84ad
I2753
sV\u652c
I2507
sV\u6f30
I7325
sV\u88b5
I2366
sV\u7d3c
I4866
sV\u60c5
I51
sV\u6ac9
I7438
sV\u924e
I8319
sV\u9c52
I6229
sV\u78d5
I5773
sV\u5954
I796
sV\u605a
I6567
sV\u50e5
I5844
sV\u5ae9
I1335
sV\u67eb
I8638
sV\u856c
I3839
sV\u6bf3
I2026
sV\u8974
I7345
sV\u7ffb
I901
sV\u8005
I156
sV\u570b
I201
sV\u940d
I4090
sV\u9e11
I3079
sV\u7994
I6361
sV\u8696
I8153
sV\u6219
I8028
sV\u809a
I2734
sV\u8a9e
I1081
sV\u7621
I3945
sV\u57a0
I4411
sV\u7025
I7191
sV\u51a4
I2634
sV\u872b
I8364
sV\u812f
I3517
sV\u4e31
I4025
sV\u8b33
I4643
sV\u6cb2
I5013
sV\u9f3b
I2339
sV\u7abe
I6661
sV\u87c0
I4661
sV\u6343
I7000
sV\u81c4
I8123
sV\u4ec6
I4453
sV\u774b
I8543
sV\u95cc
I1193
sV\u7b53
I6394
sV\u5cd2
I4633
sV\u99d4
I5406
sV\u4f5b
I2803
sV\u8c5d
I7805
sV\u6ddc
I8382
sV\u9661
I6618
sV\u9065
I8580
sV\u9a69
I4863
sV\u7be8
I8662
sV\u646d
I5486
sV\u82ee
I7924
sV\u96f6
I1756
sV\u7279
I866
sV\u53f8
I2119
sV\u6b02
I6907
sV\u6106
I3793
sV\u5b8d
I7858
sV\u9e8f
I5673
sV\u7312
I6522
sV\u6a97
I3569
sV\u609b
I6810
sV\u821c
I2228
sV\u7ca3
I8733
sV\u72a7
I5534
sV\u572a
I6126
sV\u6a2c
I8461
sV\u87b5
I8342
sV\u6634
I4169
sV\u9db9
I8035
sV\u7c38
I4695
sV\u69c1
I4884
sV\u8146
I5348
sV\u71d1
I7226
sV\u8ad7
I5185
sV\u6956
I5982
sV\u80db
I8025
sV\u86df
I3344
sV\u655e
I1338
sV\u59e1
I6554
sV\u7166
I4806
sV\u68eb
I8182
sV\u8a6c
I6313
sV\u6eef
I3120
sV\u8070
I2676
sV\u9c78
I2417
sV\u70fb
I8475
sV\u557e
I4441
sV\u8f05
I1856
sV\u8509
I7832
sV\u6488
I6273
sV\u580b
I8542
sV\u9b0d
I7818
sV\u7a8c
I5663
sV\u8996
I1007
sV\u6d19
I4334
sV\u58a0
I5585
sV\u91a6
I7082
sV\u54a8
I3532
sV\u9a37
I3086
sV\u7fba
I7095
sV\u963f
I2186
sV\u75be
I2564
sV\u88c0
I1324
sV\u6c43
I7931
sV\u8ec4
I6592
sV\u6247
I1404
sV\u62dc
I1813
sV\u5c63
I4339
sV\u83f2
I1939
sV\u6775
I2457
sV\u7d79
I3096
sV\u6a02
I240
sV\u660a
I1249
sV\u5a8d
I6762
sV\u9f8f
I7400
sV\u7c0e
I7957
sV\u5091
I4015
sV\u9593
I1053
sV\u831c
I2405
sV\u7da3
I2492
sV\u5026
I752
sV\u6b2c
I7378
sV\u4faf
I307
sV\u80b1
I4892
sV\u6734
I4654
sV\u5bb7
I6446
sV\u68c1
I6541
sV\u6ec5
I1267
sV\u8046
I5471
sV\u64c9
I5981
sV\u5b4c
I5620
sV\u81db
I6220
sV\u87df
I8373
sV\u9de3
I8479
sV\u7a62
I4221
sV\u5ee5
I8102
sV\u54e9
I8296
sV\u69eb
I6685
sV\u8b6c
I5452
sV\u6fef
I2185
sV\u8170
I1330
sV\u65f3
I8556
sV\u8774
I2607
sV\u7bf7
I2418
sV\u71fb
I4523
sV\u5e7a
I6868
sV\u937c
I3587
sV\u8801
I4564
sV\u6f84
I747
sV\u6588
I6595
sV\u5f0f
I1308
sV\u9011
I8201
sV\u8896
I1060
sV\u8e9a
I4097
sV\u849e
I7815
sV\u59a0
I7097
sV\u90a6
I3051
sV\u55a8
I7909
sV\u892b
I2639
sV\u96aa
I852
sV\u8f2f
I5387
sV\u6cae
I3592
sV\u5c39
I3964
sV\u973f
I6955
sV\u89c0
I405
sV\u8fc4
I6646
sV\u7f4f
I4077
sV\u91d0
I4146
sV\u52d2
I2104
sV\u97d4
I2561
sV\u6dd8
I2162
sV\u63dc
I3445
sV\u9861
I7717
sV\u5367
I7420
sV\u8cee
I4431
sV\u98f6
I5532
sV\u7c79
I7337
sV\u727d
I1305
sV\u8e83
I6297
sV\u8087
I130
sV\u598d
I2354
sV\u6897
I3204
sV\u8e18
I5441
sV\u801c
I5202
sV\u5922
I295
sV\u70a7
I8329
sV\u9628
I4158
sV\u6230
I74
sV\u6434
I1375
sV\u52bb
I4756
sV\u91bd
I4039
sV\u703c
I5253
sV\u54bf
I2546
sV\u6dc5
I2594
sV\u8346
I2786
sV\u854a
I3794
sV\u584c
I5139
sV\u9f4e
I4052
sV\u9152
I671
sV\u75d5
I620
sV\u4fd9
I6805
sV\u82db
I4463
sV\u6d5a
I2811
sV\u675e
I4845
sV\u5be1
I3276
sV\u5de5
I1047
sV\u7366
I7734
sV\u756a
I2388
sV\u6cef
I4930
sV\u66f3
I1901
sV\u78f7
I380
sV\u72fb
I4586
sV\u5d7a
I8410
sV\u907c
I1577
sV\u74ff
I7965
sV\u8b01
I1749
sV\u6a80
I1605
sV\u4e03
I347
sV\u8d05
I3460
sV\u6c84
I4187
sV\u8709
I4040
sV\u6688
I2448
sV\u788c
I4450
sV\u5c0f
I569
sV\u8b96
I3980
sV\u6f19
I6375
sV\u4e98
I6455
sV\u8d9a
I7284
sV\u7b21
I8524
sV\u5aa0
I7923
sV\u93a6
I7596
sV\u7729
I3829
sV\u56a8
I7399
sV\u6fae
I4989
sV\u61b2
I2765
sV\u9837
I3323
sV\u7dba
I1735
sV\u513d
I7100
sV\u6e43
I5698
sV\u8cc4
I4472
sV\u6047
I6820
sV\u60dc
I605
sV\u7ae0
I1794
sV\u5e63
I4571
sV\u9769
I3710
sV\u696d
I2522
sV\u8fee
I7329
sV\u6371
I7774
sV\u81f2
I6852
sV\u6575
I2981
sV\u7f79
I4417
sV\u9dfa
I1764
sV\u717d
I7016
sV\u8187
I7002
sV\u640a
I6238
sV\u588d
I5385
sV\u5291
I7992
sV\u9793
I6301
sV\u8f18
I6910
sV\u639b
I2593
sV\u659f
I2374
sV\u7fa3
I271
sV\u5226
I4961
sV\u82b1
I649
sV\u59b7
I6877
sV\u7f38
I2580
sV\u53bb
I640
sV\u90bd
I5937
sV\u6ac1
I8402
sV\u8842
I7375
sV\u6cc5
I3611
sV\u66c9
I1557
sV\u5350
I6607
sV\u9052
I4562
sV\u4ed9
I200
sV\u6c5a
I4813
sV\u85df
I5462
sV\u665e
I3427
sV\u5ae1
I3745
sV\u5ce5
I7891
sV\u91e7
I2142
sV\u6beb
I693
sV\u746a
I2205
sV\u67f3
I1357
sV\u5c7a
I7790
sV\u75ff
I3931
sV\u4f03
I5221
sV\u5b0b
I1861
sV\u5713
I771
sV\u8a96
I8528
sV\u6e19
I4592
sV\u4f98
I7807
sV\u601d
I695
sV\u5da4
I5682
sV\u8b2b
I1852
sV\u6eae
I8299
sV\u60b2
I79
sV\u7ab6
I5213
sV\u76be
I7715
sV\u6147
I2573
sV\u87c8
I6761
sV\u7b4b
I3930
sV\u7d4f
I4607
sV\u93d0
I6775
sV\u95d4
I2871
sV\u8e59
I1847
sV\u6fd8
I5104
sV\u7be0
I844
sV\u5f63
I7071
sV\u7de4
I5846
sV\u5167
I303
sV\u686d
I7750
sV\u6475
I3179
sV\u7e79
I5019
sV\u5ff8
I5851
sV\u707d
I3124
sV\u6f02
I3203
sV\u5f8d
I7511
sV\u790e
I6028
sV\u5591
I6908
sV\u78a3
I3843
sV\u5f22
I4138
sV\u9a24
I7644
sV\u532a
I356
sV\u8fad
I1635
sV\u6e2c
I441
sV\u6430
I5281
sV\u6234
I2223
sV\u5eb7
I582
sV\u99b9
I3122
sV\u54bb
I7571
sV\u763c
I4878
sV\u8f42
I2537
sV\u6bc5
I3910
sV\u61c9
I32
sV\u7fcd
I8676
sV\u5e4c
I2317
sV\u994e
I6622
sV\u75d1
I8731
sV\u9752
I576
sV\u5254
I5035
sV\u84db
I8019
sV\u82df
I4223
sV\u615e
I6479
sV\u5de1
I980
sV\u98e3
I4551
sV\u5be5
I1621
sV\u7566
I2816
sV\u6ceb
I4718
sV\u736a
I6911
sV\u8e6c
I4304
sV\u60f3
I290
sV\u5b7a
I4808
sV\u6a84
I3090
sV\u8109
I634
sV\u5c0b
I753
sV\u7e8c
I1467
sV\u7490
I8441
sV\u8d96
I2489
sV\u8b9a
I5793
sV\u671d
I546
sV\u7d21
I4922
sV\u9fa2
I7665
sV\u7b25
I3836
sV\u95a6
I7658
sV\u93aa
I3439
sV\u4f2d
I7674
sV\u69ae
I41
sV\u8033
I933
sV\u67b2
I7467
sV\u923f
I1884
sV\u71be
I4360
sV\u8cc0
I3046
sV\u6843
I1380
sV\u4fc2
I4250
sV\u8ac4
I7800
sV\u9ecc
I7639
sV\u57d2
I3081
sV\u68d8
I3283
sV\u875d
I7936
sV\u66dc
I4597
sV\u9d61
I1873
sV\u7ce0
I4881
sV\u9169
I2052
sV\u6f6d
I420
sV\u87f2
I2330
sV\u58f8
I7466
sV\u777d
I5183
sV\u8983
I5977
sV\u6406
I3022
sV\u9d8b
I4766
sV\u620a
I5541
sV\u6f97
I940
sV\u8918
I7732
sV\u659b
I2501
sV\u871c
I3407
sV\u5e22
I7308
sV\u5426
I1795
sV\u522a
I3975
sV\u8ead
I5840
sV\u6f2c
I2434
sV\u84b1
I3769
sV\u5fb7
I136
sV\u55bb
I2847
sV\u96bd
I6606
sV\u773c
I1552
sV\u6cc1
I685
sV\u8e42
I8119
sV\u8446
I2194
sV\u60c9
I8522
sV\u5f4c
I316
sV\u5550
I6494
sV\u5354
I246
sV\u83df
I3581
sV\u605e
I5968
sV\u7e62
I6406
sV\u7466
I8749
sV\u6deb
I3808
sV\u6bef
I2473
sV\u5a7a
I2176
sV\u977c
I6644
sV\u8c01
I3800
sV\u6b84
I4864
sV\u8009
I7495
sV\u7f8c
I1910
sV\u9215
I6403
sV\u8a9a
I3417
sV\u7c21
I603
sV\u5da0
I1282
sV\u5ba4
I192
sV\u7029
I5157
sV\u4e2d
I206
sV\u9f37
I3670
sV\u7aba
I12
sV\u563d
I7520
sV\u6747
I7448
sV\u81c8
I8563
sV\u7b4f
I5694
sV\u95d0
I3732
sV\u4f57
I2952
sV\u8859
I4024
sV\u67dc
I6557
sV\u7de0
I6209
sV\u9a65
I1686
sV\u7be4
I6368
sV\u9069
I2357
sV\u9cf6
I3914
sV\u767d
I24
sV\u90fe
I6921
sV\u4f81
I5384
sV\u9e8b
I3154
sV\u9293
I4541
sV\u7512
I6327
sV\u5195
I43
sV\u8a18
I1117
sV\u609f
I2718
sV\u7aa3
I2101
sV\u5d22
I3749
sV\u9824
I1458
sV\u74a7
I339
sV\u4eab
I4558
sV\u512a
I2929
sV\u5cb7
I5179
sV\u9bb9
I7638
sV\u56bb
I8667
sV\u95bd
I2128
sV\u743c
I7881
sV\u6fc1
I1197
sV\u69c5
I1996
sV\u63c9
I1746
sV\u814a
I6097
sV\u7dcd
I7885
sV\u9b4e
I5070
sV\u77d1
I8445
sV\u5650
I7444
sV\u71d5
I1366
sV\u86db
I2211
sV\u695a
I342
sV\u5fe1
I2496
sV\u9ae3
I2595
sV\u7d62
I5120
sV\u59e5
I2893
sV\u7766
I3489
sV\u53e9
I2789
sV\u6eeb
I8757
sV\u8c6c
I5100
sV\u62f3
I2278
sV\u76fb
I4938
sV\u947c
I7765
sV\u8309
I7065
sV\u9711
I1369
sV\u7690
I6354
sV\u5213
I5985
sV\u6b19
I6923
sV\u651d
I3784
sV\u839e
I6809
sV\u5ea0
I3698
sV\u9da2
I4765
sV\u97a6
I1627
sV\u7329
I2163
sV\u91aa
I1611
sV\u8233
I4217
sV\u65b2
I5588
sV\u7fb6
I4170
sV\u963b
I219
sV\u79ba
I4739
sV\u553d
I8196
sV\u8ec0
I4126
sV\u6447
I8597
sV\u784f
I8378
sV\u7253
I2108
sV\u8b59
I3424
sV\u855d
I7995
sV\u9f61
I4153
sV\u72e8
I5169
sV\u6771
I448
sV\u6175
I1570
sV\u4e81
I7616
sV\u6c02
I3467
sV\u8587
I2397
sV\u6606
I3367
sV\u600a
I2477
sV\u4e16
I158
sV\u9f20
I3057
sV\u9924
I5429
sV\u9328
I7426
sV\u502a
I3272
sV\u6134
I2640
sV\u5db7
I4979
sV\u9ab9
I8341
sV\u6ec1
I7740
sV\u8646
I7585
sV\u62c9
I5582
sV\u804a
I2041
sV\u5d4c
I4689
sV\u9a4e
I3567
sV\u5750
I805
sV\u9452
I2449
sV\u5154
I2207
sV\u8dd7
I2567
sV\u6e56
I1186
sV\u87db
I7634
sV\ue85a
I7941
sV\u81df
I6230
sV\u625e
I5738
sV\u5ee1
I5688
sV\u7c62
I8759
sV\u58e5
I6460
sV\u52e9
I6958
sV\u6feb
I3596
sV\u8d6c
I5636
sV\u63f3
I8537
sV\u8174
I5128
sV\u5e76
I6795
sV\u77fb
I4762
sV\u71ff
I6384
sV\u6f80
I4054
sV\u8805
I3362
sV\u8209
I1348
sV\u6388
I2301
sV\u5f0b
I4254
sV\u9c0d
I6760
sV\u7d8c
I4414
sV\u590f
I1401
sV\u7790
I8612
sV\u9015
I621
sV\u7194
I7054
sV\u6a19
I1001
sV\u889a
I6948
sV\u5fa0
I5775
sV\u7825
I3371
sV\u59a4
I4585
sV\u53a8
I7855
sV\u90aa
I3907
sV\u6aae
I4942
sV\u64b2
I1888
sV\u78ba
I6177
sV\u6b43
I5232
sV\u7f4b
I4772
sV\u794f
I4156
sV\u7353
I6124
sV\u6bd8
I2836
sV\u65dc
I5634
sV\u7fe0
I169
sV\u5b63
I2859
sV\u9865
I3976
sV\u79e4
I4875
sV\u6c6d
I6407
sV\u8aee
I5427
sV\u9ef6
I8160
sV\u7a79
I1068
sV\u5bf8
I2068
sV\u747d
I6742
sV\u92fe
I5964
sV\u808b
I5874
sV\u868f
I8691
sV\u8c93
I4455
sV\u6b12
I2735
sV\u7297
I7418
sV\u9418
I1965
sV\u8624
I7125
sV\u722c
I5898
sV\u99b1
I2158
sV\u7830
I5642
sV\u5cb3
I2725
sV\u85b9
I4575
sV\u71c1
I4109
sV\u7dc9
I8000
sV\u5c48
I1642
sV\u9f4a
I1677
sV\u854e
I7227
sV\u6fd5
I1898
sV\u92d7
I8340
sV\u7156
I2213
sV\u98db
I19
sV\u775a
I4135
sV\u9edf
I4668
sV\u7d5e
I6316
sV\u6362
I8575
sV\u8ae7
I1553
sV\u6966
I7657
sV\u76ef
I8530
sV\u9870
I1491
sV\u62f7
I6535
sV\u68fb
I6662
sV\u8a7c
I6269
sV\u6eff
I661
sV\u5403
I3883
sV\u9705
I1779
sV\u7684
I2714
sV\u9d09
I2356
sV\u830d
I4825
sV\u6890
I5790
sV\u8f15
I59
sV\u6e94
I5388
sV\u9196
I6436
sV\u979a
I2536
sV\u6121
I8509
sV\u83a2
I3421
sV\u89a6
I6745
sV\u6d29
I5159
sV\u532d
I8260
sV\u962f
I5767
sV\u5931
I1417
sV\u5f35
I318
sV\u8237
I2414
sV\u61b6
I1159
sV\u883b
I2527
sV\u96c4
I257
sV\u59c6
I8693
sV\u664f
I3859
sV\u8ed4
I5143
sV\u5257
I1535
sV\u74d8
I6293
sV\u5e5f
I4442
sV\u60e0
I273
sV\u8765
I4955
sV\u8d69
I7234
sV\u6ce8
I900
sV\u95ee
I7842
sV\u7f75
I7843
sV\u87fa
I7803
sV\u9583
I2506
sV\u5685
I7580
sV\u7806
I5609
sV\u818b
I4838
sV\u7e0a
I7768
sV\u4e95
I738
sV\u5016
I2056
sV\u4e2a
I5665
sV\u92ad
I7502
sV\u7930
I6555
sV\u9eb5
I3689
sV\u84b9
I2612
sV\u6538
I5616
sV\u4fbf
I553
sV\u5140
I3972
sV\u9846
I1607
sV\u7cc9
I5939
sV\u62cd
I1598
sV\u8a52
I7162
sV\u6ed5
I3052
sV\u4f54
I7738
sV\u93d7
I4165
sV\u99db
I2744
sV\u7c5e
I5514
sV\u936c
I7167
sV\u77ef
I3825
sV\u8578
I6968
sV\u9001
I707
sV\u7d88
I4966
sV\u820d
I1783
sV\u638c
I2261
sV\u5598
I2482
sV\u5b9c
I1087
sV\u6021
I2645
sV\u6625
I40
sV\u8eaa
I7011
sV\u5831
I1011
sV\u60b6
I2042
sV\u893b
I5308
sV\u8f3f
I353
sV\u6cbe
I2828
sV\u91c0
I2945
sV\u7b47
I3191
sV\u614b
I904
sV\u5eca
I333
sV\u83cc
I3138
sV\u674f
I1397
sV\u8fd4
I2679
sV\u5357
I877
sV\u8665
I6826
sV\u67e4
I8470
sV\u6de8
I994
sV\u53ec
I3377
sV\u6479
I6377
sV\u86fa
I3224
sV\u8cfe
I791
sV\u9683
I8421
sV\u7b06
I6970
sV\u5f89
I7542
sV\u828b
I4635
sV\u7d0a
I3728
sV\u670e
I7743
sV\u8e93
I4883
sV\u6912
I1042
sV\u5316
I30
sV\u7c9f
I1923
sV\u8220
I5363
sV\u68a7
I1217
sV\u8e28
I8640
sV\u52ab
I2691
sV\u91ad
I5657
sV\u702c
I8553
sV\u5eb3
I5334
sV\u9db5
I6738
sV\u7c34
I6305
sV\u89bd
I839
sV\u683c
I1002
sV\u75c5
I1429
sV\u5e48
I4807
sV\u9d4a
I6942
sV\u61cd
I6912
sV\u874e
I4717
sV\u90d7
I4331
sV\u755a
I4235
sV\u59dd
I2658
sV\u86e3
I6476
sV\u6162
I519
sV\u6b66
I177
sV\u72eb
I7501
sV\u6d6a
I1447
sV\u906c
I7034
sV\u60f7
I6059
sV\u6afb
I1608
sV\u6cff
I6518
sV\u4f7e
I1680
sV\u7280
I2266
sV\u5807
I5245
sV\u9f09
I3132
sV\u7e88
I5416
sV\u608c
I5524
sV\u6a90
I5010
sV\u6c94
I4196
sV\u3017
I6462
sV\u9396
I600
sV\u7719
I5829
sV\u5698
I5817
sV\u589c
I1558
sV\u6f29
I4059
sV\u4ea8
I3108
sV\u512d
I6543
sV\u8a3b
I6120
sV\u8c3f
I4225
sV\u6fbe
I8255
sV\u7643
I7496
sV\u51c2
I8024
sV\u5bc6
I468
sV\u9ec8
I6342
sV\u624b
I560
sV\u80cc
I1210
sV\u644f
I8042
sV\u6e53
I2729
sV\u9759
I8574
sV\u50ec
I8682
sV\u97ee
I8630
sV\u5af0
I7500
sV\u5cf4
I2814
sV\u83f6
I4131
sV\u85fa
I4941
sV\u5281
I6135
sV\u858f
I6725
sV\u660e
I242
sV\u5216
I3564
sV\u541a
I4713
sV\u7d9f
I8533
sV\u8f28
I8041
sV\u53ab
I2983
sV\u88bd
I8355
sV\u72c1
I5750
sV\u5340
I373
sV\u9042
I836
sV\u74c5
I5865
sV\u5544
I4055
sV\u9a46
I8163
sV\u5f48
I1951
sV\u25cf
I2948
sV\u864e
I850
sV\u6ad1
I8464
sV\u8852
I2833
sV\u6cd5
I2302
sV\u91d7
I7147
sV\u7256
I3116
sV\u745a
I2219
sV\u58dd
I6574
sV\u9ddf
I3080
sV\u7e5e
I344
sV\u87e3
I5317
sV\u6062
I4984
sV\u89e7
I7235
sV\u6a66
I4460
sV\u6c6a
I6610
sV\u916c
I443
sV\u7ff3
I892
sV\u5872
I4954
sV\u61f7
I272
sV\u8778
I2970
sV\u4e7e
I114
sV\u5703
I3787
sV\u7f88
I530
sV\u800d
I2352
sV\u6d94
I3812
sV\u9296
I1387
sV\u9e9e
I3923
sV\u6221
I4976
sV\u80a2
I1724
sV\u6425
I5858
sV\u8aa6
I3198
sV\u932b
I2915
sV\u8caa
I278
sV\u502d
I1879
sV\u76ae
I3703
sV\u5c35
I7831
sV\u62b6
I6329
sV\u50c2
I5258
sV\u7947
I956
sV\u634b
I3919
sV\u654f
I5247
sV\u6f53
I8406
sV\u5157
I4496
sV\u5b5b
I4747
sV\u63e0
I7681
sV\u8e69
I6086
sV\u5bf0
I2713
sV\u98f2
I803
sV\u5df4
I1790
sV\u82f6
I7005
sV\u8efe
I3040
sV\u5581
I5959
sV\u9083
I4338
sV\u9e87
I8335
sV\u7d06
I1016
sV\u610e
I6258
sV\u9e1c
I2964
sV\u7a9f
I3209
sV\u25a1
I44
sV\u8420
I8185
sV\u60a3
I2999
sV\u6ea7
I3389
sV\u8828
I5918
sV\u54ab
I1712
sV\u97ad
I1107
sV\u9db1
I6960
sV\u7c30
I8703
sV\u58b3
I2939
sV\u6e3c
I5022
sV\u75c1
I8262
sV\u5440
I4433
sV\u9742
I4848
sV\u79c9
I2883
sV\u5848
I6875
sV\u814e
I6803
sV\u6dd1
I2494
sV\u8f52
I7139
sV\u5fdd
I1261
sV\u9adf
I7981
sV\u795e
I131
sV\u80e3
I8129
sV\u6d66
I1781
sV\u966c
I217
sV\u516e
I4181
sV\u78f3
I8429
sV\u5f72
I7449
sV\u66f7
I3329
sV\u7480
I5792
sV\u7284
I6612
sV\u9909
I3938
sV\u870d
I3695
sV\u668c
I3748
sV\u6c90
I1025
sV\u7119
I3170
sV\u5098
I6655
sV\u939a
I3754
sV\u7f1d
I8706
sV\u5e9c
I2195
sV\u87a2
I2569
sV\u8da6
I6017
sV\u942b
I4678
sV\u572d
I1038
sV\u5d31
I3884
sV\u9833
I3574
sV\u7fb2
I1675
sV\u4f3d
I3432
sV\u69be
I5163
sV\u7043
I5513
sV\u57c2
I8489
sV\u92c4
I6744
sV\u7e47
I5412
sV\u98c8
I6605
sV\u644b
I7973
sV\u6853
I2591
sV\u9159
I6990
sV\u70d8
I2578
sV\u8561
I7173
sV\u64e0
I6904
sV\u68e8
I5342
sV\u7d71
I3314
sV\u5cf0
I181
sV\u7b75
I659
sV\u85f6
I7305
sV\u7602
I8283
sV\u5889
I2554
sV\u858b
I6869
sV\u7a0a
I5923
sV\u600e
I7208
sV\u8993
I1833
sV\u7d9b
I8477
sV\u581e
I2878
sV\u6fa7
I5390
sV\u55ab
I4037
sV\u7d30
I391
sV\u59b3
I8151
sV\u7b34
I7256
sV\u80b9
I6466
sV\u6f3c
I6188
sV\u5540
I7078
sV\u9642
I2003
sV\u5344
I8601
sV\u5948
I1219
sV\u25cb
I6459
sV\u9a4a
I2376
sV\u5edd
I3955
sV\u785e
I8096
sV\u81e3
I1158
sV\u9d70
I2854
sV\u79f3
I8107
sV\u5e72
I756
sV\u9b74
I5209
sV\u67f7
I8671
sV\u8178
I1371
sV\u6dfb
I691
sV\u6bff
I6341
sV\u7384
I225
sV\u5f07
I7643
sV\u678c
I4915
sV\u8a15
I6642
sV\u929a
I7573
sV\u7e1d
I7083
sV\u5f9c
I7678
sV\ue829
I5400
sV\u8aaa
I1846
sV\u932f
I334
sV\u70ae
I5861
sV\u5c31
I2095
sV\u9933
I3453
sV\u5a35
I8366
sV\u64b6
I8002
sV\u56c2
I2730
sV\u7f47
I2579
sV\u99c8
I6485
sV\u634f
I7210
sV\u6953
I1487
sV\u5757
I7714
sV\u9059
I1146
sV\u5b5f
I4141
sV\u8461
I4229
sV\u65e0
I6417
sV\u8869
I3392
sV\u69e8
I6581
sV\u766d
I6207
sV\u9ef2
I5076
sV\u88fe
I2260
sV\u5185
I7771
sV\u9c87
I6227
sV\u5b89
I577
sV\u868b
I4237
sV\u4f91
I5533
sV\u8a93
I2092
sV\u6d12
I5528
sV\u5716
I1695
sV\u7e9b
I3104
sV\u511a
I8497
sV\u789f
I3408
sV\u95ad
I3044
sV\u742c
I6127
sV\u50af
I6879
sV\u99b5
I7719
sV\u7834
I67
sV\u5640
I4301
sV\u9f46
I7504
sV\u7bc9
I3091
sV\u65cd
I4703
sV\u834e
I7718
sV\u4e50
I8607
sV\u7756
I8650
sV\u53d9
I6571
sV\u9edb
I183
sV\u5ddd
I121
sV\u98df
I2075
sV\u82e3
I2151
sV\u6562
I3130
sV\u8ce7
I7916
sV\u6f66
I4653
sV\u696a
I5862
sV\u536e
I7277
sV\u5d72
I5061
sV\u9874
I6075
sV\u64f7
I5011
sV\u8278
I7649
sV\u6efb
I4349
sV\u5203
I3974
sV\u5c07
I872
sV\u9b09
I6296
sV\u7a88
I1725
sV\u850d
I4694
sV\u6e90
I148
sV\u8915
I4707
sV\u6894
I3570
sV\u5298
I5326
sV\u7d1d
I7087
sV\u9b9e
I6303
sV\u8fa6
I5468
sV\u89aa
I138
sV\u902f
I6470
sV\u5f31
I1822
sV\u7db2
I1306
sV\u67b6
I320
sV\u61ba
I7519
sV\u96c0
I1902
sV\u90c4
I2271
sV\u59ca
I3352
sV\u88d4
I4049
sV\u5e5b
I4779
sV\u9d5d
I2341
sV\u7cdc
I3943
sV\u66e0
I935
sV\u8165
I2027
sV\u6ae8
I4539
sV\u5ef0
I7867
sV\u9df2
I4536
sV\u81fa
I326
sV\u5085
I2172
sV\u7e06
I8696
sV\u818f
I2267
sV\u620e
I2545
sV\u4e91
I3474
sV\u8b93
I239
sV\u5616
I4998
sV\u9318
I5367
sV\u501a
I636
sV\u63a3
I2646
sV\u8124
I5737
sV\u4e26
I2849
sV\u8b28
I2748
sV\u752c
I6772
sV\u5bb3
I282
sV\u7934
I1234
sV\u82b9
I2875
sV\u8cbd
I823
sV\u6d3c
I5045
sV\u5740
I2635
sV\u5144
I2764
sV\u64cd
I2946
sV\u824e
I5778
sV\u6ed1
I2268
sV\u4f50
I474
sV\u68d5
I5212
sV\u7656
I3031
sV\u52d9
I1869
sV\u99df
I4628
sV\u8de7
I5771
sV\u9f70
I8465
sV\u7bf3
I7297
sV\u69ff
I2484
sV\u7780
I7192
sV\u9005
I4764
sV\u5d07
I249
sV\u840d
I1916
sV\u658c
I7538
sV\u8815
I5882
sV\u6994
I1990
sV\u7c1d
I7588
sV\u84a2
I8768
sV\u6025
I563
sV\u88aa
I5474
sV\u542d
I6832
sV\u912f
I8374
sV\u7cb2
I3515
sV\u5835
I5009
sV\u8f3b
I5546
sV\u60ba
I6310
sV\u7343
I7110
sV\u54c2
I3762
sV\u7d47
I8005
sV\u9bc8
I5508
sV\u89d4
I4522
sV\u5557
I6755
sV\u7ddc
I3246
sV\u8661
I8673
sV\u8a69
I658
sV\u9cf2
I6256
sV\u6279
I4616
sV\u6c7d
I7372
sV\u8afe
I2775
sV\u5f85
I1516
sV\u5589
I3103
sV\u888b
I6582
sV\u770a
I6223
sV\u6d0e
I5347
sV\u8493
I6271
sV\u7a97
I431
sV\u5916
I364
sV\u921c
I7793
sV\u9bad
I6202
sV\u7a2c
I7617
sV\u91b1
I5910
sV\u7030
I4812
sV\u54b3
I5568
sV\u97b5
I3842
sV\u7634
I1991
sV\u6c38
I378
sV\u83bd
I833
sV\u79c1
I504
sV\u9b42
I1457
sV\u7fc5
I2168
sV\u5e44
I2440
sV\u9146
I5320
sV\u5448
I2371
sV\u6bcd
I2256
sV\u8352
I226
sV\u7956
I231
sV\u90db
I7143
sV\u96df
I8446
sV\u8ce3
I3005
sV\u6b62
I2446
sV\u82e7
I1358
sV\u676a
I2249
sV\u9070
I2072
sV\u9674
I6871
sV\u8c78
I4068
sV\u60fb
I3958
sV\u4f7a
I1649
sV\u66ff
I3520
sV\u9901
I8384
sV\u5207
I500
sV\u7488
I7197
sV\u9996
I143
sV\u7d19
I3082
sV\u4ea4
I91
sV\u81a6
I7240
sV\u982b
I8188
sV\u7dae
I4016
sV\u5131
I8286
sV\u73b2
I337
sV\u803b
I4172
sV\u863f
I724
sV\u65be
I2601
sV\u98c0
I429
sV\u7c43
I4226
sV\u5bc2
I223
sV\u9ec4
I7485
sV\u7247
I545
sV\u51c6
I6219
sV\u57ca
I8020
sV\u5a57
I7165
sV\u68e0
I1907
sV\u8f65
I8442
sV\u8569
I141
sV\u7b6d
I2159
sV\u50f0
I4940
sV\u89f6
I7599
sV\u6d79
I3680
sV\u8ffa
I6419
sV\u637d
I6265
sV\u5881
I7600
sV\u7a02
I6133
sV\u7006
I4719
sV\u898b
I14
sV\u6c0e
I5082
sV\u6212
I2813
sV\u7b97
I1568
sV\u719b
I6169
sV\u5e1a
I5084
sV\u541e
I3372
sV\u8f24
I7824
sV\u63a7
I3102
sV\u9aad
I6824
sV\u7b2c
I1499
sV\u5faf
I6939
sV\u90b1
I7878
sV\u7130
I1317
sV\u96b5
I7970
sV\u7734
I7799
sV\u6d38
I5756
sV\u82bd
I2731
sV\u633c
I2316
sV\u78c1
I8367
sV\u9a42
I1676
sV\u964a
I7229
sV\u8c4e
I3729
sV\u60d1
I2881
sV\u5cd9
I955
sV\u7e5a
I2248
sV\u52dd
I629
sV\u745e
I794
sV\u8de3
I5005
sV\u4ee5
I870
sV\u79eb
I4299
sV\u5272
I2362
sV\u9774
I4233
sV\u6bf7
I6730
sV\u837c
I5341
sV\u67ff
I3391
sV\u9801
I6636
sV\u9409
I8714
sV\u7588
I7184
sV\u4f0f
I174
sV\u8011
I7415
sV\u6190
I683
sV\u5d98
I8403
sV\u9e9a
I5674
sV\u721d
I6058
sV\u6821
I3533
sV\u6e25
I3165
sV\u992b
I6252
sV\u86aa
I5888
sV\u5a2d
I8390
sV\u9f2f
I4057
sV\u7cae
I5590
sV\u5635
I7050
sV\u8b37
I7039
sV\u6eba
I3992
sV\u873f
I2958
sV\u64be
I3979
sV\u7d43
I2795
sV\u5ac2
I4242
sV\u95c8
I1728
sV\u694b
I7713
sV\u56ca
I2572
sV\u6f4f
I4945
sV\u5b57
I2145
sV\u9c59
I8743
sV\u7dd8
I2221
sV\u8861
I1094
sV\u6fe4
I2412
sV\u8469
I4404
sV\u65e8
I2454
sV\u7a6d
I7261
sV\u5bec
I2743
sV\u51f0
I1875
sV\u57f4
I6765
sV\u6c79
I8458
sV\u8efa
I953
sV\u5b81
I5323
sV\u9e83
I8506
sV\u9087
I1235
sV\u6f0e
I7523
sV\u8693
I5652
sV\u7897
I5912
sV\u5b16
I5231
sV\u9e18
I4511
sV\u729b
I5816
sV\u5d1a
I5685
sV\u749f
I6141
sV\u571e
I2280
sV\u99ad
I289
sV\u7230
I4792
sV\u7434
I2100
sV\u6e38
I1528
sV\u81bd
I1188
sV\u7bc1
I2270
sV\u5a40
I2199
sV\u77c9
I7258
sV\u69cd
I3737
sV\u8f4e
I8363
sV\u63d1
I6026
sV\u8152
I7962
sV\u98d7
I8427
sV\u7b56
I1229
sV\u5fd9
I2688
sV\u7d5a
I947
sV\u51dd
I765
sV\u775e
I5302
sV\u6962
I5314
sV\u7aeb
I7009
sV\u7cef
I7293
sV\u64ff
I5402
sV\u7a80
I5296
sV\u5e03
I1154
sV\u9d05
I8116
sV\u7688
I5701
sV\u8515
I1995
sV\u9d9a
I2855
sV\u509c
I5828
sV\u979e
I4356
sV\u6b21
I1498
sV\u6d25
I637
sV\u83a6
I7099
sV\u9a2b
I963
sV\u85aa
I3430
sV\u592d
I2183
sV\u7fae
I4782
sV\u5331
I3024
sV\u71b2
I8199
sV\u9ac0
I5848
sV\u7e43
I5592
sV\u7047
I7958
sV\u6a4b
I1810
sV\u55ca
I7091
sV\u88cc
I5695
sV\u4fce
I3622
sV\u5857
I2169
sV\u525b
I2599
sV\u70dc
I3328
sV\u4e63
I7129
sV\u66e8
I3867
sV\u796d
I3258
sV\u58ec
I6672
sV\u7371
I5763
sV\u617d
I5228
sV\u87fe
I2054
sV\u7802
I2654
sV\u9187
I4923
sV\u7206
I2702
sV\u8b8b
I6457
sV\u740a
I4648
sV\u8793
I5449
sV\u6012
I3341
sV\u7997
I7157
sV\u5c1a
I94
sV\u911c
I4328
sV\u8b20
I1422
sV\u6fa3
I3667
sV\u61a7
I4432
sV\u8728
I5008
sV\u98ad
I1924
sV\u792c
I6507
sV\u7330
I6283
sV\u6f38
I1331
sV\u7ac1
I6364
sV\u5b40
I3541
sV\u7cc5
I7530
sV\u944a
I4626
sV\u68cd
I8051
sV\u8e4e
I8715
sV\u8052
I5031
sV\u64d5
I7412
sV\u5ed9
I7594
sV\u50dd
I6089
sV\u95df
I8231
sV\u81e7
I5284
sV\u7def
I263
sV\u5e6e
I6183
sV\u9370
I8482
sV\u77f3
I388
sV\u5072
I7568
sV\u9a01
I3075
sV\u5f03
I7683
sV\u9c05
I6981
sV\u5107
I7494
sV\u6390
I5999
sV\u5f98
I1531
sV\u701d
I864
sV\u6a21
I2472
sV\u6629
I7385
sV\u84aa
I7627
sV\u9d2f
I8766
sV\u5231
I7068
sV\u70b2
I6215
sV\u5435
I7667
sV\u8937
I4710
sV\u4e39
I171
sV\u853f
I8193
sV\u66be
I4457
sV\u9bc0
I7198
sV\u7f43
I6999
sV\u9dc4
I5641
sV\u97c8
I2043
sV\u6753
I3820
sV\u905d
I4711
sV\u555f
I5586
sV\u8a61
I7156
sV\u6de4
I4265
sV\u8669
I8049
sV\u59ec
I1697
sV\u9eee
I6416
sV\u53f0
I1096
sV\u8af6
I3813
sV\u4ff8
I4877
sV\u8cfa
I2155
sV\u86fe
I1527
sV\u5d81
I6014
sV\u5b85
I2689
sV\u5189
I2850
sV\u3008
I6442
sV\u730a
I1708
sV\u4f8d
I1644
sV\u690e
I4898
sV\u8093
I5328
sV\u5d16
I730
sV\u9818
I1665
sV\u961c
I170
sV\u511e
I7699
sV\u8028
I982
sV\u5cab
I186
sV\u5aaf
I6728
sV\u95b1
I3676
sV\u7430
I4201
sV\u50b3
I1046
sV\u4eb7
I6707
sV\u6838
I1998
sV\u87bd
I5596
sV\u5c40
I2606
sV\u71c9
I7707
sV\u5048
I2788
sV\u934a
I1701
sV\u7d56
I4520
sV\u59d9
I7422
sV\u92df
I8653
sV\u715e
I2303
sV\u6f62
I4351
sV\u6566
I2974
sV\u7aef
I552
sV\u596e
I3778
sV\u9470
I3306
sV\u5772
I6898
sV\u64fb
I5668
sV\u62ff
I7991
sV\u9b05
I1850
sV\u7a84
I2487
sV\u9109
I164
sV\u8511
I5628
sV\u6490
I3822
sV\u6294
I7056
sV\u9d96
I3514
sV\u7919
I1858
sV\u919e
I4591
sV\u85a6
I479
sV\u83aa
I5965
sV\u5f2d
I4004
sV\u79ae
I1112
sV\u5531
I827
sV\u8e37
I8584
sV\u6db6
I7758
sV\u6bba
I1463
sV\u61be
I4613
sV\u9cc0
I8761
sV\u7843
I7220
sV\u53ca
I517
sV\u8ecc
I3008
sV\u84d0
I3828
sV\u6053
I5566
sV\u82d4
I619
sV\u5e57
I7246
sV\u9959
I8226
sV\u76dc
I3503
sV\u6ce0
I2466
sV\u5eec
I1262
sV\u99ee
I5034
sV\u97f2
I3758
sV\u7375
I2858
sV\u6979
I3115
sV\u81fe
I2796
sV\u9787
I8079
sV\u7406
I475
sV\u720a
I6814
sV\u8193
I6702
sV\u7f97
I4327
sV\u5c16
I2791
sV\u9918
I742
sV\u971c
I355
sV\u5dab
I5376
sV\u7530
I985
sV\u7334
I2900
sV\u6938
I8082
sV\u7ac5
I3702
sV\u5148
I6
sV\u6ecd
I8309
sV\u884e
I5556
sV\u62d5
I6913
sV\u58d9
I3725
sV\u56dd
I5618
sV\u93df
I5180
sV\u705e
I1720
sV\u89e3
I1273
sV\u7deb
I7393
sV\u9f6c
I5268
sV\u5672
I4533
sV\u65fb
I3915
sV\u7d80
I8032
sV\u9a05
I2641
sV\u9009
I8617
sV\u8e0d
I6280
sV\u6f8c
I3440
sV\u8411
I3469
sV\u6590
I4598
sV\u8215
I7238
sV\u6029
I8077
sV\u5e2d
I2017
sV\u9b2f
I4840
sV\u8f37
I6909
sV\u853b
I2146
sV\u9dc0
I3074
sV\u5ec2
I4415
sV\u7747
I1237
sV\u54c6
I6247
sV\u6b4f
I7869
sV\u85d0
I4543
sV\u5f57
I4746
sV\u9859
I5131
sV\u79d8
I2674
sV\u965d
I5216
sV\u77dc
I2740
sV\u8c61
I959
sV\u61e8
I6714
sV\u7e6d
I1453
sV\u7471
I5239
sV\u96f2
I195
sV\u6879
I8302
sV\u8afa
I7493
sV\u80fe
I6946
sV\u5f81
I73
sV\u7d02
I4502
sV\u8e8b
I936
sV\u8293
I7423
sV\u7c97
I4651
sV\u9a18
I4774
sV\u769b
I5718
sV\u591a
I203
sV\u8e20
I5715
sV\u6aa3
I2528
sV\u5eab
I304
sV\u58af
I7392
sV\u91b5
I7266
sV\u7034
I8513
sV\u6a38
I4122
sV\u7fc1
I1761
sV\u9d42
I8236
sV\u9746
I6168
sV\u73c9
I5589
sV\u914a
I2053
sV\u8b4e
I6057
sV\u67d1
I4736
sV\u96db
I2864
sV\u795a
I3879
sV\u90df
I4733
sV\u4fe1
I1195
sV\u84e7
I3678
sV\u78ef
I2923
sV\u9670
I704
sV\u4f76
I3886
sV\u847c
I7688
sV\u5a03
I1839
sV\u9905
I3759
sV\u4e0b
I83
sV\u8d0d
I4490
sV\u6c8c
I110
sV\u8711
I7972
sV\u6690
I7546
sV\u6094
I1744
sV\u7b19
I1441
sV\u939e
I7073
sV\u8da2
I6325
sV\u75b2
I755
sV\u5135
I3726
sV\u8c37
I315
sV\u6fb6
I5526
sV\u803f
I1027
sV\u63be
I3385
sV\u5dc2
I7322
sV\u98c4
I1368
sV\u7447
I3363
sV\u57c6
I4620
sV\u6e4b
I7654
sV\u51ca
I5527
sV\u6253
I1845
sV\u80d4
I8435
sV\u74dc
I211
sV\u8f61
I2071
sV\u56f0
I1385
sV\u50f4
I8438
sV\u89fa
I7539
sV\u5885
I2759
sV\u9587
I8576
sV\u5289
I2016
sV\u898f
I311
sV\u8393
I2322
sV\u6412
I6914
sV\u5e16
I1928
sV\u9b18
I7248
sV\u719f
I2011
sV\u8f20
I8505
sV\u6ba3
I7783
sV\u65a7
I3145
sV\u8328
I4358
sV\u7d2c
I7038
sV\u96b1
I798
sV\u90b5
I3632
sV\u8ab9
I6440
sV\u6b38
I6757
sV\u5f40
I6070
sV\u78c5
I7035
sV\u5944
I5331
sV\u5348
I1909
sV\u904a
I832
sV\u8a4e
I3688
sV\u60d5
I3770
sV\u9dd7
I2033
sV\u7e56
I4582
sV\u97db
I4288
sV\u4ee1
I8430
sV\u6666
I3543
sV\u7feb
I424
sV\u606a
I5755
sV\u9d6c
I2806
sV\u9174
I7230
sV\u6df7
I109
sV\u8b78
I7592
sV\u61ff
I4555
sV\u5b03
I8316
sV\u9805
I3010
sV\u7984
I8559
sV\u5507
I3694
sV\u4f0b
I7893
sV\u6d8c
I1241
sV\u6790
I3864
sV\u8015
I2988
sV\u6194
I1883
sV\u9e96
I8460
sV\u7a19
I7300
sV\u5b98
I472
sV\u559c
I82
sV\u6e21
I53
sV\u8ca2
I2968
sV\u6825
I7455
sV\u6229
I7849
sV\u80aa
I4042
sV\u7aae
I385
sV\u6eb6
I920
sV\u873b
I2583
sV\u99c4
I7267
sV\u7547
I7453
sV\u50ca
I369
sV\u8dcc
I4880
sV\u5d57
I7390
sV\u7bd8
I6710
sV\u515f
I3785
sV\u8e61
I6854
sV\u6fe0
I4389
sV\u9aee
I615
sV\u7671
I8377
sV\u647d
I6302
sV\u82fe
I5989
sV\u6483
I7432
sV\u8302
I250
sV\u6a87
I7497
sV\u8f0a
I5096
sV\u520c
I8212
sV\u9b12
I1841
sV\u5e14
I1711
sV\u6418
I3338
sV\u7020
I5794
sV\u7624
I6438
sV\u7c28
I6934
sV\u822c
I797
sV\u69b1
I4429
sV\u8e34
I4029
sV\u75b9
I5572
sV\u9438
I2810
sV\u9a3c
I6600
sV\u81c1
I8162
sV\u6f4a
I8001
sV\u754e
I5403
sV\u99d1
I3111
sV\u7b52
I3159
sV\u62d7
I5472
sV\u74e3
I6626
sV\u5664
I5359
sV\u5c68
I3465
sV\u9f6a
I4488
sV\u4ff5
I7462
sV\u9eff
I5052
sV\u6101
I924
sV\u6705
I1307
sV\u300b
I6425
sV\u558e
I8359
sV\u6196
I8624
sV\u679a
I3795
sV\u8b1d
I566
sV\u73a2
I6052
sV\u79a6
I4688
sV\u602b
I7104
sV\u662f
I681
sV\u6c33
I2770
sV\u54b8
I1721
sV\u97ba
I8722
sV\u5abc
I6098
sV\u7e3f
I8344
sV\u66c4
I4702
sV\u904b
I113
sV\u534d
I6491
sV\u72cc
I7219
sV\u5951
I1287
sV\u78d0
I1233
sV\u6559
I677
sV\u8adc
I3255
sV\u53e2
I862
sV\u7765
I3117
sV\u59e6
I3007
sV\u5fea
I2078
sV\u5277
I7315
sV\u5e7f
I8241
sV\u6583
I4216
sV\u8202
I3173
sV\u8806
I4916
sV\u8e0a
I6608
sV\u5910
I8194
sV\u7d93
I98
sV\u5f14
I3032
sV\u6518
I3926
sV\u8f9f
I3164
sV\u95a3
I1163
sV\u56a5
I5855
sV\u5ca9
I5405
sV\u8930
I1940
sV\u6eb5
I6945
sV\u8f34
I6922
sV\u74b9
I6452
sV\u9b3c
I1110
sV\u5c3e
I2485
sV\u6846
I8275
sV\u51cb
I617
sV\u6e4a
I2825
sV\u57cf
I4671
sV\u5dd3
I6986
sV\u9ed5
I8313
sV\u8056
I147
sV\u6fdf
I583
sV\u9262
I3166
sV\u5764
I115
sV\u9866
I1438
sV\u8df3
I4058
sV\u4ef5
I8637
sV\u7578
I7004
sV\u8180
I8269
sV\u8784
I8658
sV\u6c09
I6731
sV\u720d
I1407
sV\u938c
I5822
sV\u548e
I4418
sV\u7811
I1868
sV\u5a92
I1666
sV\u9f94
I4801
sV\u6096
I3893
sV\u8a1d
I2917
sV\u9021
I2390
sV\u72a2
I1988
sV\u9c29
I5656
sV\u612b
I7473
sV\u672f
I8069
sV\u6d33
I3593
sV\u8ab2
I4798
sV\u7337
I875
sV\u5bbc
I8567
sV\u8543
I2234
sV\u67c4
I4227
sV\u6dc8
I8358
sV\u914b
I52
sV\u524d
I432
sV\u5851
I6649
sV\u9d53
I8135
sV\u5e55
I1124
sV\u7fd4
I328
sV\u52e2
I635
sV\u7665
I5437
sV\u97e4
I1536
sV\u7c69
I4552
sV\u9de8
I6973
sV\u8871
I5016
sV\u6829
I4245
sV\u5377
I1268
sV\u9479
I8516
sV\u5f7f
I359
sV\u7cfe
I6221
sV\u8102
I1482
sV\u4e08
I899
sV\u8d0a
I3672
sV\u970e
I1413
sV\u7e93
I2225
sV\u9912
I3721
sV\u5c14
I7872
sS'<START>'
p2
I8772
sV\u96a3
I3358
sV\u7424
I3692
sV\u5fa9
I507
sV\u6db5
I3143
sV\u77b9
I8405
sV\u79bd
I2284
sV\u983c
I7428
sV\u83c1
I5291
sV\u6b46
I1044
sV\u91cd
I251
sV\u774e
I6473
sV\u5ed3
I1239
sV\u9dd5
I6179
sV\u8356
I8546
sV\u6adb
I5109
sV\u855a
I5631
sV\u5260
I8247
sV\u76e3
I3092
sV\u9162
I6695
sV\u78e7
I1904
sV\u5e68
I3256
sV\u82eb
I5659
sV\u606c
I5545
sV\u6a70
I5987
sV\u6c74
I715
sV\u57f9
I2203
sV\u7678
I6043
sV\u9afb
I1332
sV\u787c
I5772
sV\u9cff
I7276
sV\u6301
I1623
sV\u6505
I6787
sV\u6f09
I4454
sV\u7b11
I1388
sV\u5992
I2177
sV\u7d15
I6629
sV\u6396
I3685
sV\u659a
I8017
sV\u9321
I6392
sV\u5827
I7163
sV\u622b
I8608
sV\u87ae
I4977
sV\u89b2
I4118
sV\u7a3b
I2443
sV\u58bc
I8159
sV\u7c3f
I3050
sV\u64c4
I7777
sV\u4f49
I7856
sV\u924b
I8507
sV\u514d
I1554
sV\u5b51
I5269
sV\u5d55
I8195
sV\u6759
I7010
sV\u695d
I8134
sV\u88dc
I2655
sV\u4fde
I4974
sV\u7361
I7698
sV\u7565
I2720
sV\u5be6
I179
sV\u7f69
I2470
sV\u9ee8
I3719
sV\u67ee
I5460
sV\u4e73
I1986
sV\u69f2
I3217
sV\u5077
I1211
sV\u75fa
I3932
sV\u7ffe
I3428
sV\u738b
I1290
sV\u758f
I887
sV\u9812
I305
sV\u5d14
I1279
sV\u6718
I5928
sV\u54a5
I5725
sV\u7524
I7245
sV\u5236
I3128
sV\u9738
I2937
sV\u543a
I8117
sV\u993c
I6766
sV\u6042
I5251
sV\u53cb
I1420
sV\u6c4a
I7624
sV\u90cd
I7974
sV\u9ad1
I5193
sV\u8256
I6734
sV\u6bdb
I1581
sV\u845a
I6920
sV\u5360
I2129
sV\u77e3
I967
sV\u79e7
I4964
sV\u9a66
I5706
sV\u83eb
I6799
sV\u6d74
I2094
sV\u56f9
I5782
sV\u58fd
I1030
sV\u797c
I5535
sV\u8584
I422
sV\u700d
I4899
sV\u568e
I7766
sV\u7a11
I7954
sV\u9b90
I6321
sV\u6296
I5667
sV\u8619
I8075
sV\u649a
I1394
sV\u5927
I105
sV\u632b
I2379
sV\u652f
I1798
sV\u6f33
I3002
sV\u57b8
I7669
sV\u7b3b
I4793
sV\u7d3f
I8093
sV\u9ebe
I3067
sV\u63c0
I3560
sV\u8743
I6713
sV\u65c4
I1679
sV\u934b
I4679
sV\u5a51
I6797
sV\u9f53
I6523
sV\u5c55
I2001
sV\u89dc
I2020
sV\u4ede
I1248
sV\u7261
I675
sV\u95e4
I6103
sV\u5ae6
I2098
sV\u7e69
I1972
sV\u8a71
I1205
sV\u4f73
I1502
sV\u68f2
I642
sV\u5177
I1031
sV\u72f6
I5669
sV\u8702
I2009
sV\u748b
I4114
sV\u560c
I8270
sV\u7893
I3172
sV\u4f9d
I361
sV\u90a3
I538
sV\u53a5
I3746
sV\u9ea7
I8408
sV\u6bb5
I3458
sV\u8a34
I928
sV\u5536
I6895
sV\u71b9
I7934
sV\u9038
I1759
sV\u7fbd
I193
sV\u593e
I2193
sV\u85c1
I4139
sV\u83c5
I4917
sV\u4ec7
I4405
sV\u6b4a
I6980
sV\u97cd
I6764
sV\u714e
I2459
sV\u58d3
I1424
sV\u8556
I2644
sV\u6cdb
I670
sV\u6adf
I2942
sV\u895e
I2523
sV\u9762
I1179
sV\u666c
I3880
sV\u82ef
I6933
sV\u6c70
I5392
sV\u88f3
I1596
sV\u96f7
I343
sV\u51f9
I5953
sV\u7078
I5288
sV\u5ffd
I788
sV\u7e7c
I2726
sV\u9aff
I6834
sV\u8480
I7541
sV\u6305
I7898
sV\u8284
I8448
sV\u8888
I4363
sV\u5f92
I775
sV\u6596
I8235
sV\u8f1d
I2500
sV\u699e
I5279
sV\u5023
I6985
sV\u77a2
I6886
sV\u7da6
I5942
sV\u6833
I1656
sV\u8fb2
I979
sV\u95b6
I2870
sV\u7a3f
I7365
sV\u8043
I6092
sV\u62c4
I5166
sV\u8e47
I945
sV\u76cc
I5197
sV\u924f
I4846
sV\u9853
I4696
sV\u5b55
I4163
sV\u6159
I828
sV\u80d8
I6292
sV\u92e4
I4397
sV\u5de6
I511
sV\u98e8
I6561
sV\u9179
I4089
sV\u5a7f
I2474
sV\u6183
I6864
sV\u8602
I1507
sV\u6f87
I6992
sV\u758b
I5879
sV\u8a0a
I2861
sV\u5d10
I7270
sV\u9e12
I8317
sV\u8797
I6037
sV\u8b9f
I5262
sV\u54a1
I8043
sV\u58a9
I3900
sV\u6cb1
I2030
sV\u4e32
I3804
sV\u5436
I8478
sV\u523a
I2420
sV\u84c1
I5607
sV\u6642
I652
sV\u96cd
I3357
sV\u59d3
I1754
sV\u7e52
I2479
sV\u6ddb
I3131
sV\u825a
I5529
sV\u4f5c
I758
sV\u885e
I4215
sV\u9662
I1466
sV\u9a6a
I2571
sV\u83ef
I160
sV\u89f3
I6048
sV\u50f9
I3065
sV\u7f7c
I6454
sV\u9bff
I7333
sV\u8988
I4882
sV\u7c11
I5453
sV\u8e1d
I8354
sV\u5f27
I2936
sV\u652b
I5581
sV\u7aaa
I5105
sV\u632f
I1225
sV\u7737
I299
sV\u5fbc
I1212
sV\u98be
I5887
sV\u63c4
I5370
sV\u564d
I6903
sV\u77cc
I8426
sV\u5c51
I1597
sV\u5a55
I4584
sV\u7bd4
I3888
sV\u6059
I5900
sV\u81d8
I2247
sV\u6e5d
I8606
sV\u95e0
I6104
sV\u93e4
I2069
sV\u7869
I7955
sV\u5aea
I7956
sV\u6ef2
I3619
sV\u8a75
I2272
sV\u5777
I5690
sV\u74f6
I2885
sV\u9079
I6465
sV\u72fa
I6332
sV\u9e7d
I3690
sV\u78fe
I8065
sV\u6283
I2956
sV\u6c87
I8523
sV\u768b
I4665
sV\u890a
I4624
sV\u540c
I666
sV\u7a93
I4871
sV\u9d12
I3200
sV\u57a1
I8251
sV\u7620
I4021
sV\u51a5
I1063
sV\u842c
I123
sV\u6fb1
I8758
sV\u8e30
I3263
sV\u9238
I7907
sV\u513a
I6264
sV\u7dbd
I2118
sV\u5b3e
I1478
sV\u56cb
I2465
sV\u694a
I1818
sV\u95cd
I5962
sV\u50cf
I291
sV\u734e
I3877
sV\u5ad3
I5957
sV\u99d5
I408
sV\u64d7
I6117
sV\u6edb
I8587
sV\u68df
I4377
sV\u7ce7
I4132
sV\u9f66
I7682
sV\u80ef
I5991
sV\u4ff1
I2113
sV\u8af3
I1834
sV\u6874
I4995
sV\u7278
I2987
sV\u9efb
I4642
sV\u5dfd
I4837
sV\u8084
I6493
sV\u4f86
I36
sV\u750d
I329
sV\u300f
I6468
sV\u5d92
I5686
sV\u8319
I5554
sV\u619a
I3545
sV\u6b9e
I4797
sV\u9721
I6621
sV\u75a2
I7603
sV\u9b29
I7811
sV\u662b
I6061
sV\u79aa
I2838
sV\u602f
I1386
sV\u8db2
I7914
sV\u97b6
I4151
sV\u7e3b
I3614
sV\u91ba
I2047
sV\u66c0
I5560
sV\u60c4
I6062
sV\u964b
I4192
sV\u74cc
I4698
sV\u904f
I2372
sV\u5955
I3512
sV\u78d4
I4297
sV\u8cdc
I3147
sV\u7761
I1374
sV\u55e2
I4207
sV\u7165
I3180
sV\u90e4
I6752
sV\u59ea
I87
sV\u856d
I1377
sV\u63ee
I1961
sV\u8975
I8491
sV\u5477
I5503
sV\u5e7b
I4344
sV\u9d7d
I7871
sV\u587f
I4693
sV\u7bfe
I5893
sV\u6383
I1882
sV\u6d87
I4615
sV\u8e06
I4999
sV\u778b
I4324
sV\u718f
I1894
sV\u920e
I3854
sV\u9c12
I8754
sV\u5914
I4525
sV\u8597
I6464
sV\u8f9b
I1201
sV\u7720
I1734
sV\u93a3
I7780
sV\u64ad
I4352
sV\u852c
I3106
sV\u6eb1
I5742
sV\u68b5
I3174
sV\u5636
I1800
sV\u7cbd
I8541
sV\u86c1
I8372
sV\u57cb
I1588
sV\u724e
I8554
sV\u9ed1
I2232
sV\u5bd3
I2345
sV\u65d7
I2116
sV\u8656
I7915
sV\u6fdb
I2065
sV\u805a
I1221
sV\u8a5e
I2139
sV\u73e3
I3049
sV\u87eb
I7108
sV\u656c
I3004
sV\u81ef
I1624
sV\u6f70
I4160
sV\u7378
I1500
sV\u5cfd
I1353
sV\u99ff
I288
sV\u4e86
I1479
sV\u958c
I8343
sV\u528e
I7434
sV\u7e11
I820
sV\u9f90
I3478
sV\u6696
I1396
sV\u609a
I5955
sV\u6a9e
I3897
sV\u9621
I4167
sV\u5323
I2304
sV\u5d27
I5868
sV\u672b
I694
sV\u78aa
I5129
sV\u82ae
I5333
sV\u8cb2
I5762
sV\u7537
I2715
sV\uff3b
I6444
sV\u5dbc
I4655
sV\u793f
I8118
sV\u67c0
I6697
sV\u8343
I5832
sV\u79d4
I3171
sV\u83d8
I6294
sV\u6c5d
I2696
sV\u8ddc
I5733
sV\u7661
I2355
sV\u54e2
I4252
sV\u91e4
I7686
sV\u7a69
I1569
sV\u9be8
I3137
sV\u846d
I2613
sV\u62ee
I7341
sV\u6c83
I4197
sV\u8b02
I2746
sV\u8106
I1551
sV\u870a
I7174
sV\u7e8f
I2609
sV\u5010
I6095
sV\u5614
I4512
sV\u809b
I6861
sV\u55a9
I4430
sV\u7428
I2866
sV\u6bad
I6214
sV\u8030
I5597
sV\u67b5
I6596
sV\u7db9
I7133
sV\u5f3a
I6528
sV\u553e
I1617
sV\u8fc5
I5411
sV\u6146
I6995
sV\u85c9
I1563
sV\u91d1
I189
sV\u7352
I5501
sV\u8956
I4610
sV\u60db
I8144
sV\u855e
I5311
sV\u5860
I5051
sV\u5468
I841
sV\u6070
I1604
sV\u6674
I735
sV\u5df9
I5905
sV\u6901
I7557
sV\u8e84
I7249
sV\u6509
I5967
sV\u9090
I3062
sV\u9694
I1886
sV\u8d19
I5309
sV\u831d
I4894
sV\u9921
I8604
sV\u77aa
I4506
sV\u6e2f
I3519
sV\u7a37
I2762
sV\u5cb8
I993
sV\u52bc
I7846
sV\u95be
I4920
sV\u4f45
I8206
sV\u6ec4
I773
sV\u8247
I2431
sV\u64c8
I8167
sV\u984b
I1476
sV\u76d4
I7851
sV\u6d59
I3064
sV\u4fda
I4527
sV\u635d
I6540
sV\u82dc
I3521
sV\u5be2
I1546
sV\u7f65
I913
sV\u9ee4
I5023
sV\u6dee
I1590
sV\u63f2
I3616
sV\u5a77
I1892
sV\u7ffa
I5463
sV\u75fe
I3635
sV\u8a02
I6568
sV\u6387
I4244
sV\u8006
I2660
sV\u798b
I456
sV\u860a
I3226
sV\u5b0c
I1391
sV\u5110
I8675
sV\u7593
I7723
sV\u9212
I6353
sV\u6d18
I7601
sV\u879f
I5917
sV\u5ea5
I6928
sV\u93a7
I4198
sV\u54a9
I8451
sV\u7528
I1792
sV\u8b2c
I4310
sV\u60b1
I7796
sV\u8130
I6756
sV\u66b5
I5595
sV\u8734
I6190
sV\u7cb9
I6102
sV\u543e
I586
sV\u88c1
I1698
sV\u6046
I444
sV\u84c9
I1805
sV\u59cb
I106
sV\u7252
I3949
sV\u96d5
I1602
sV\u6bd7
I3084
sV\u8856
I6266
sV\u67df
I5190
sV\u5960
I2930
sV\u7de3
I729
sV\u9a62
I4084
sV\u5f64
I3110
sV\u5568
I5877
sV\u89eb
I6049
sV\u966a
I612
sV\u6170
I50
sV\u85f3
I6149
sV\u6774
I7980
sV\u7d78
I8345
sV\u737c
I2899
sV\u97ff
I744
sV\u6e05
I267
sV\u6409
I3941
sV\u8588
I893
sV\u7a0d
I2499
sV\u9b8c
I6932
sV\u7011
I795
sV\u9190
I5081
sV\u5292
I1587
sV\u7615
I8376
sV\u9794
I6154
sV\u649e
I4182
sV\u9821
I2024
sV\u76aa
I3628
sV\u6f2f
I7373
sV\u8cae
I6497
sV\u98b6
I5655
sV\u5db8
I3750
sV\u69c0
I7032
sV\u4e45
I46
sV\u8347
I2160
sV\u994b
I3937
sV\u7bcc
I3297
sV\u9f4f
I5249
sV\u71d0
I4178
sV\u6c59
I2299
sV\u4eda
I6503
sV\u83dc
I4210
sV\u50e6
I7641
sV\u7469
I2684
sV\u8a6d
I4164
sV\u4f6f
I2074
sV\u6cee
I1796
sV\u8071
I7944
sV\u62f2
I6078
sV\u8675
I4385
sV\u8306
I4446
sV\u7a8b
I7789
sV\u580c
I7250
sV\u9f0e
I2681
sV\u7693
I1423
sV\u9112
I3048
sV\u8897
I8436
sV\u601c
I5475
sV\u849f
I5666
sV\u7a20
I3832
sV\u69ad
I2400
sV\u65b5
I3215
sV\u7fb9
I1787
sV\u903c
I3455
sV\u4ec3
I7897
sV\u6942
I5974
sV\u87c9
I7646
sV\u5acb
I1622
sV\u93d1
I5032
sV\u56d3
I2521
sV\u7152
I5557
sV\u95d5
I64
sV\u68d7
I3375
sV\u8b56
I4475
sV\u4e58
I413
sV\u62db
I1893
sV\u5a60
I7096
sV\u5c64
I944
sV\u5668
I2763
sV\u8aeb
I2857
sV\u6474
I2254
sV\u51fd
I1944
sV\u707c
I2064
sV\u6709
I72
sV\u5192
I4091
sV\u7515
I3280
sV\u6b96
I5285
sV\u8f19
I4786
sV\u811d
I7107
sV\u9b21
I7077
sV\u5027
I7470
sV\u73a6
I4451
sV\u8fae
I6295
sV\u6633
I5021
sV\u5eb8
I1097
sV\u723b
I7204
sV\u9dba
I3199
sV\u97be
I4032
sV\u6cc4
I4314
sV\u66c8
I3841
sV\u9c4f
I5622
sV\u5351
I3777
sV\u72d0
I3629
sV\u5555
I7767
sV\u74d4
I6232
sV\u6f59
I6032
sV\u615d
I4993
sV\u9ae0
I4721
sV\u53e6
I6448
sV\u7769
I7810
sV\u96e8
I198
sV\u896d
I7398
sV\u6fee
I4921
sV\u61f2
I3437
sV\u7dfa
I1488
sV\u547f
I7554
sV\u6187
I6019
sV\u7b8b
I2154
sV\u840a
I1544
sV\u7d8f
I4148
sV\u9e0e
I1887
sV\u5310
I5484
sV\u5514
I8256
sV\u4e99
I5155
sV\u6f18
I5350
sV\u839b
I6415
sV\u611c
I951
sV\u7b20
I1768
sV\u7728
I8276
sV\u68ad
I1489
sV\u62b1
I925
sV\u8534
I6633
sV\u5a36
I4413
sV\u5c3a
I1523
sV\u4fc3
I1099
sV\u6842
I764
sV\u6246
I1663
sV\u86c9
I7797
sV\u98cd
I7263
sV\u5dcf
I8015
sV\u57d3
I8076
sV\u7052
I5548
sV\u8a56
I7102
sV\u63db
I1129
sV\u8c5a
I3913
sV\u65df
I3042
sV\u865e
I3013
sV\u7fe3
I5654
sV\u9862
I4576
sV\u71e7
I4120
sV\u9266
I6204
sV\u5768
I8301
sV\u946a
I1497
sV\u696c
I8103
sV\u8def
I997
sV\u6574
I554
sV\u99f7
I7232
sV\u5ef9
I8293
sV\u7f78
I6653
sV\u717c
I6216
sV\u6a01
I6091
sV\u8b80
I2783
sV\u6c05
I3796
sV\u8d84
I6018
sV\u6609
I3429
sV\u780d
I5990
sV\u7211
I8577
sV\u5092
I7499
sV\u9594
I4497
sV\u6c9a
I5779
sV\u78a2
I8770
sV\u9c25
I3498
sV\u74aa
I5921
sV\u80b2
I4427
sV\u733b
I7363
sV\u753f
I5093
sV\u6bc0
I3351
sV\u6dc4
I379
sV\u8147
I7081
sV\u67c8
I7335
sV\u584d
I4366
sV\u75d4
I3807
sV\u605d
I6441
sV\u7a61
I4749
sV\u7c65
I3767
sV\u9de4
I8202
sV\u52e6
I6409
sV\u7669
I7507
sV\u6eee
I7279
sV\u8271
I204
sV\u60f2
I3302
sV\u8475
I2488
sV\u7af6
I1956
sV\u9e79
I3190
sV\u537b
I2818
sV\u7cfa
I6239
sV\u907d
I3505
sV\u76fe
I5246
sV\u6883
I8338
sV\u6687
I3634
sV\u8506
I7926
sV\u5e0c
I1247
sV\u5410
I2099
sV\u829f
I723
sV\u7c20
I4553
sV\u98a3
I6950
sV\u5ba5
I5627
sV\u96a7
I5653
sV\u7028
I3158
sV\u8234
I1774
sV\u79b9
I889
sV\u9838
I2130
sV\u77bd
I3959
sV\u963c
I8211
sV\u8dc1
I4649
sV\u81c9
I1334
sV\u5ccb
I4606
sV\u7752
I5647
sV\u8b5a
I4657
sV\u5c60
I3911
sV\u78e3
I8517
sV\u9f62
I8647
sV\u76e7
I2025
sV\u8ceb
I7088
sV\u936a
I4926
sV\u6274
I8108
sV\u9ef7
I3608
sV\u59f9
I2209
sV\u57fd
I1561
sV\u767c
I2
sV\u8a84
I3355
sV\u6109
I5375
sV\u7511
I2944
sV\u6d96
I6660
sV\u7fa2
I8139
sV\u9b25
I7879
sV\u4eac
I1971
sV\u6033
I965
sV\u7e37
I1454
sV\u56bc
I1615
sV\u5f4d
I8124
sV\u9a4f
I7302
sV\u5551
I7285
sV\u9053
I145
sV\u72d4
I8267
sV\u6959
I6675
sV\u88d8
I1773
sV\u675d
I8720
sV\u86dc
I8511
sV\u7d61
I1400
sV\u7b65
I8322
sV\u7169
I1227
sV\u90e8
I3472
sV\u53ea
I668
sV\u69ee
I7118
sV\u5e77
I3282
sV\u7df6
I4595
sV\u547b
I5107
sV\u527f
I6896
sV\u71fe
I6458
sV\u6787
I2179
sV\u820a
I80
sV\u7b8f
I1867
sV\u980e
I5949
sV\u5510
I2184
sV\u5314
I7874
sV\u859b
I3536
sV\u5ca1
I317
sV\u7d20
I18
sV\u62b5
I3141
sV\u9938
I7712
sV\u8cc1
I3686
sV\u6446
I7761
sV\u80c9
I7679
sV\u5dcb
I5909
sV\u9ecd
I2877
sV\u784e
I5041
sV\u65db
I3922
sV\u805e
I891
sV\u79e3
I1578
sV\u5b64
I1169
sV\u77e7
I4936
sV\u5168
I2131
sV\u4eed
I8333
sV\u6f6c
I6309
sV\u81f3
I1713
sV\u58f9
I7228
sV\u95fb
I7794
sV\u4e82
I1473
sV\u6a05
I8349
sV\u8188
I7040
sV\u9394
I4672
sV\u6c96
I2110
sV\u8819
I6614
sV\u609e
I2623
sV\u74a6
I7045
sV\u6d2b
I4392
sV\u59b8
I8679
sV\u733f
I2349
sV\u90be
I8380
sV\u6dc0
I6029
sV\u8943
I3066
sV\u61c8
I7396
sV\u7fcc
I7051
sV\u9b4f
I776
sV\u5451
I7427
sV\u665d
I1522
sV\u87dc
I7804
sV\u9de0
I8394
sV\u5ee2
I2566
sV\u9be4
I4770
sV\u54e6
I702
sV\u7069
I2006
sV\u8e6d
I4303
sV\u68ee
I2530
sV\u8471
I1036
sV\u66f2
I1077
sV\u5f77
I358
sV\u7cf6
I6594
sV\u557b
I2614
sV\u7afa
I4348
sV\u967d
I977
sV\u537f
I2148
sV\u4e00
I65
sV\u6487
I5123
sV\u8706
I6246
sV\u810a
I4117
sV\u788f
I6712
sV\u5610
I6988
sV\u5014
I4978
sV\u869b
I7975
sV\u641c
I1064
sV\u5fa1
I829
sV\u7e20
I2258
sV\u59a5
I4251
sV\u53a9
I5136
sV\u7228
I3940
sV\u6dad
I4701
sV\u8034
I7945
sV\u75bd
I3946
sV\u6746
I5913
sV\u83c9
I5519
sV\u5ecb
I8046
sV\u614a
I7264
sV\u6cd7
I1849
sV\u66db
I2059
sV\u895a
I7820
sV\u60df
I134
sV\u5864
I4901
sV\u9766
I5057
sV\u8eeb
I2508
sV\u916a
I4580
sV\u88ef
I4194
sV\u6670
I5901
sV\u9cf7
I4333
sV\u7a78
I5297
sV\u96fb
I2996
sV\u55fd
I5941
sV\u90ff
I3952
sV\u6f01
I1760
sV\u6905
I5325
sV\u6309
I1594
sV\u7d0d
I2776
sV\u7115
I8598
sV\u9094
I7510
sV\u8b19
I3716
sV\u639e
I5754
sV\u5a23
I3792
sV\u7da2
I2550
sV\u6e2b
I7636
sV\u6233
I5358
sV\u85b2
I6927
sV\u7c37
I2524
sV\u5ab8
I4125
sV\u99ba
I6547
sV\u54bc
I7584
sV\u8a43
I6583
sV\u68c4
I2067
sV\u62c8
I1506
sV\u5d4d
I8016
sV\u984f
I1149
sV\u5751
I3699
sV\u5155
I5101
sV\u70d4
I8564
sV\u6b59
I6153
sV\u655d
I4257
sV\u7f61
I4742
sV\u9ee0
I4776
sV\u5de2
I1216
sV\u7965
I2994
sV\u8d6d
I4574
sV\u8771
I6197
sV\u7ff6
I3782
sV\u73fe
I4667
sV\u6b83
I4419
sV\u6587
I818
sV\u8606
I1464
sV\u798f
I502
sV\u9a0e
I2091
sV\u7393
I5864
sV\u5114
I868
sV\u8d97
I6326
sV\u651c
I815
sV\u52a9
I1189
sV\u7328
I104
sV\u60b5
I1514
sV\u5e36
I710
sV\u74bd
I3027
sV\u523e
I6031
sV\u6c42
I310
sV\u7a4e
I5292
sV\u7be3
I8746
sV\u5368
I5578
sV\u8feb
I4005
sV\u6770
I8321
sV\u6174
I8692
sV\u97fb
I1214
sV\u54fd
I2450
sV\u91ff
I7716
sV\u7c0d
I7633
sV\u5492
I4035
sV\u7015
I7862
sV\u6e96
I1815
sV\u7ca2
I4565
sV\u9825
I7001
sV\u5527
I4959
sV\u76a6
I5365
sV\u6f2b
I1518
sV\u84b2
I2189
sV\u5bb8
I1020
sV\u98ba
I2334
sV\u6fc0
I497
sV\u9f4b
I1028
sV\u5c4d
I3863
sV\u7dcc
I5410
sV\u5651
I7827
sV\u77d0
I5646
sV\u5055
I3967
sV\u71d4
I4186
sV\u4ed6
I495
sV\u6a59
I4737
sV\u645d
I7207
sV\u85dc
I2921
sV\u7e61
I1323
sV\u7269
I363
sV\u8c6d
I6972
sV\u8671
I3776
sV\u64f2
I2282
sV\u5d77
I5174
sV\u577b
I5709
sV\u78fa
I7515
sV\u947d
I5494
sV\u5000
I3707
sV\u7483
I3365
sV\u5c08
I3410
sV\u608b
I6509
sV\u6c93
I3860
sV\u4e14
I1199
sV\u5599
I6094
sV\u7a1c
I3026
sV\u9e9f
I2619
sV\u6020
I5374
sV\u73ad
I7642
sV\u552e
I3388
sV\u79b1
I3298
sV\u9830
I3220
sV\u7fb5
I7536
sV\u65b9
I284
sV\u8438
I2394
sV\u6bbd
I3862
sV\u8a3c
I8623
sV\u91c1
I5625
sV\u97c5
I6801
sV\u5ac7
I8551
sV\u7946
I5487
sV\u654e
I5511
sV\u8fd5
I5138
sV\u72d7
I3761
sV\u9156
I8518
sV\u975a
I6338
sV\u9d5e
I6267
sV\u64e3
I2598
sV\u6ae7
I4872
sV\u8966
I1929
sV\u90eb
I3602
sV\u59f1
I6564
sV\u9cf3
I63
sV\u5ff5
I772
sV\u82f7
I7069
sV\u6478
I7190
sV\u8eff
I196
sV\u9080
I2222
sV\u9684
I2822
sV\u7d09
I6635
sV\u5f8a
I1532
sV\u630d
I5872
sV\u6911
I6147
sV\u6f15
I5692
sV\u8e94
I5356
sV\u5217
I462
sV\u7196
I6336
sV\u581b
I8220
sV\u9b1d
I8228
sV\u5e1f
I4133
sV\u63a2
I882
sV\u8725
I6308
sV\u69a6
I5150
sV\u52ac
I5305
sV\u7c33
I3612
sV\u87ba
I1492
sV\u8dbe
I1250
sV\u5141
I245
sV\u7cc8
I7525
sV\u62cc
I2152
sV\u68d0
I7673
sV\u8c53
I8655
sV\u4f55
I699
sV\u6ed4
I5207
sV\u7559
I287
sV\u94d8
I5255
sV\u5dde
I166
sV\u86e4
I3648
sV\u6d69
I2460
sV\u8ce8
I3361
sV\u7bf2
I3715
sV\u61f6
I2611
sV\u8b7d
I3168
sV\u5100
I436
sV\u7583
I7631
sV\u5704
I5783
sV\u7b87
I626
sV\u9806
I1004
sV\u9e0a
I3682
sV\u678f
I8444
sV\u840e
I4061
sV\u6d93
I932
sV\u9397
I4852
sV\u3016
I6461
sV\u7518
I638
sV\u542e
I5418
sV\u9f34
I4956
sV\u90c1
I2344
sV\u7242
I6936
sV\u96c5
I1253
sV\u5bc7
I2990
sV\u644e
I6566
sV\u5b5c
I3872
sV\u7fdf
I5431
sV\u736c
I3984
sV\u5ef5
I6430
sV\u6578
I544
sV\u7001
I5943
sV\u5282
I6066
sV\u7c09
I7388
sV\u5e8a
I5478
sV\u620d
I988
sV\u5317
I56
sV\u9419
I4550
sV\u769a
I4895
sV\u5f1f
I86
sV\u712b
I8294
sV\u6eaa
I842
sV\u772f
I5344
sV\u7d33
I4001
sV\u5fb4
I4729
sV\u80b6
I3846
sV\u6f3f
I1084
sV\u5041
I7860
sV\u71c0
I7313
sV\u5645
I8716
sV\u814b
I3934
sV\u69d0
I2102
sV\u50d6
I7481
sV\u7459
I2206
sV\u95d8
I7370
sV\u56da
I3461
sV\u5cde
I5230
sV\u6061
I4398
sV\u81e0
I3583
sV\u6c69
I3126
sV\u8de8
I314
sV\u516b
I162
sV\u576f
I7212
sV\u74ee
I6550
sV\u9871
I7560
sV\u5d73
I7943
sV\u9e75
I3738
sV\u60f6
I4934
sV\u8479
I6870
sV\u4f7f
I584
sV\u5200
I2685
sV\u7683
I8332
sV\u9102
I3406
sV\u5404
I645
sV\u7887
I3278
sV\u9b06
I1842
sV\u648f
I5467
sV\u6e93
I8067
sV\u8912
I3274
sV\u9097
I4545
sV\u599d
I1350
sV\u6424
I5295
sV\u902c
I4195
sV\u572e
I3989
sV\u7bb1
I3558
sV\u9a30
I29
sV\u7db5
I1678
sV\u67b9
I5098
sV\u8638
I2416
sV\u4f3e
I7861
sV\u93c1
I2869
sV\u58c7
I460
sV\u7b46
I2187
sV\u81cd
I2259
sV\u674e
I1626
sV\u8dd5
I4833
sV\u7cdf
I3114
sV\u68e7
I3188
sV\u8b66
I2409
sV\u51ed
I1584
sV\u7a70
I2281
sV\u9ef3
I5464
sV\u5df5
I672
sV\u80f7
I5002
sV\u9280
I1730
sV\uff09
I6428
sV\u9e88
I2827
sV\u610d
I4312
sV\u808c
I1591
sV\u8c94
I3194
sV\u7396
I4313
sV\u9719
I7154
sV\u5a1b
I2338
sV\u759a
I5322
sV\u5c1f
I8760
sV\u7f9e
I478
sV\u8525
I2114
sV\u8f29
I3095
sV\u6daa
I4284
sV\u50ac
I1200
sV\u742f
I3559
sV\u97ae
I2081
sV\u6a3b
I7853
sV\u85ba
I3853
sV\u5341
I165
sV\u72c0
I22
sV\u5545
I4069
sV\u9847
I1439
sV\u824b
I1775
sV\u6ad0
I7340
sV\u53d6
I312
sV\u96d8
I5227
sV\u55da
I1959
sV\u795d
I1015
sV\u98dc
I1618
sV\u8ee8
I1102
sV\u916d
I8232
sV\u77ee
I3549
sV\u5e73
I463
sV\u63f6
I5933
sV\u8779
I8128
sV\u65fa
I5956
sV\u6ffe
I3615
sV\u5504
I4725
sV\u7987
I7506
sV\u5f08
I4266
sV\u8812
I6268
sV\u5699
I4449
sV\u7718
I5265
sV\u589d
I4619
sV\u791c
I6285
sV\u87a3
I8164
sV\u6524
I6576
sV\u70ad
I2943
sV\u912c
I7531
sV\u562e
I6093
sV\u7ab1
I5550
sV\ue832
I7469
sV\u7cb5
I5563
sV\u66b9
I7413
sV\u57c3
I1296
sV\u7042
I6084
sV\u7a46
I1155
sV\u7c4a
I5899
sV\u8ad1
I8095
sV\u6852
I7447
sV\u8cd5
I8476
sV\u7bdb
I6077
sV\u945a
I7024
sV\u67e3
I8422
sV\u69e7
I6047
sV\u8a66
I580
sV\u4f68
I8552
sV\u8c6a
I3873
sV\u50ed
I4752
sV\u716c
I3037
sV\u7b70
I8006
sV\u6778
I6699
sV\u7405
I2044
sV\u5a86
I8324
sV\u7e09
I4121
sV\u5c8a
I8305
sV\u600d
I4105
sV\u6a11
I6531
sV\u8b90
I4179
sV\u5117
I7168
sV\u7296
I7182
sV\u5b1b
I7417
sV\u749a
I6708
sV\u5d1f
I5175
sV\u8221
I7834
sV\u60a2
I7265
sV\u732b
I4306
sV\u51ac
I2603
sV\u752f
I4279
sV\u96ae
I6298
sV\u5bb0
I3850
sV\u5db4
I7692
sV\u6137
I6088
sV\u6b3b
I7181
sV\u84ba
I5606
sV\u6d3f
I4727
sV\u5241
I5127
sV\u73c0
I2386
sV\u9743
I4317
sV\u5445
I7404
sV\u61cc
I4459
sV\u6bd0
I7243
sV\u8f53
I917
sV\u52d6
I7241
sV\u785d
I6272
sV\u5ede
I8200
sV\u85e4
I992
sV\u8fe8
I725
sV\u906d
I1088
sV\u76ee
I750
sV\u78f2
I8181
sV\u62f6
I6099
sV\u8679
I2817
sV\u64fa
I2458
sV\u887d
I5071
sV\u6efe
I7153
sV\u9702
I6022
sV\u7e87
I6743
sV\u9d06
I3492
sV\u628f
I7332
sV\u6893
I3422
sV\u8f12
I826
sV\u9697
I3034
sV\u7018
I54
sV\u8ea7
I7089
sV\u77ad
I5960
sV\u962c
I6777
sV\u7db1
I205
sV\u7bb5
I7961
sV\u8e3c
I8244
sV\u7d46
I2382
sV\u99c9
I8254
sV\u614e
I2659
sV\u8dd1
I1799
sV\u76d7
I7847
sV\u7adf
I906
sV\u995e
I5850
sV\u60e3
I6597
sV\u8d66
I3894
sV\u57ed
I3287
sV\u766c
I6603
sV\u5df1
I2774
sV\u5bf5
I2399
sV\u7a74
I804
sV\u6e7c
I6510
sV\u5782
I665
sV\u670d
I1297
sV\u868c
I2805
sV\u6d11
I5689
sV\u8c90
I7326
sV\u5617
I934
sV\u9119
I780
sV\u5a1f
I1862
sV\u8521
I3181
sV\u6baa
I7526
sV\u56ac
I1824
sV\u91ae
I2144
sV\u85b6
I8030
sV\u5541
I5024
sV\u74c0
I8388
sV\u5345
I7414
sV\u72c4
I3307
sV\u5949
I308
sV\u78c8
I4315
sV\u66cc
I8021
sV\u6cd0
I6673
sV\u8853
I579
sV\u7159
I416
sV\u53da
I7115
sV\u7f5d
I4849
sV\u9edc
I4332
sV\u59de
I8488
sV\u6969
I5189
sV\u88e8
I3094
sV\u546b
I7619
sV\u526f
I3966
sV\u71ee
I2711
sV\u65f6
I6063
sV\u8179
I2737
sV\u5304
I4273
sV\u7f87
I3497
sV\u9a0a
I5747
sV\u800e
I6270
sV\u5099
I129
sV\u8fa7
I7850
sV\u502e
I6542
sV\u7cb1
I2724
sV\u9d30
I5377
sV\u7ab5
I8590
sV\u6ebd
I4983
sV\u8f3c
I7140
sV\u7642
I4420
sV\u98c9
I7298
sV\u7a4a
I5283
sV\u8cd1
I7492
sV\u8ad5
I8274
sV\u77d7
I4699
sV\u7ddb
I8712
sV\u985e
I23
sV\u61e3
I5571
sV\u8662
I3047
sV\u776c
I6549
sV\u7d70
I6532
sV\u5af5
I7027
sV\u7b74
I8027
sV\u4efd
I6475
sV\u6f7c
I3423
sV\u7401
I7788
sV\u9580
I505
sV\u7809
I7014
sV\u6c11
I133
sV\u4e92
I3927
sV\u6a15
I6944
sV\u9019
I2539
sV\u5d1b
I4832
sV\u9e1d
I2066
sV\u8421
I8278
sV\u66a2
I1700
sV\u8225
I8468
sV\u752b
I1090
sV\u5db0
I6388
sV\u5bb4
I1379
sV\u6d3b
I574
sV\u6b3f
I8609
sV\u88be
I6511
sV\u9143
I7922
sV\u5849
I7402
sV\u79c8
I8397
sV\u854b
I6076
sV\u834f
I4064
sV\u6bd4
I1058
sV\u91d8
I2727
sV\u58de
I3426
sV\u536f
I2649
sV\u5973
I1545
sV\u8079
I6901
sV\u990a
I2666
sV\u4e10
I6880
sV\u9e9b
I6184
sV\u7c1c
I8334
sV\u6620
I1181
sV\u82a3
I5891
sV\u8ca7
I2695
sV\u9834
I5495
sV\u8238
I520
sV\u97c1
I3156
sV\u52c3
I4513
sV\u91c5
I6100
sV\u9bc9
I2643
sV\u794a
I6371
sV\u85cd
I1835
sV\u634e
I4962
sV\u8fd1
I491
sV\u9756
I3205
sV\u896a
I2633
sV\u90ef
I5510
sV\u5ff1
I6420
sV\u7e70
I4173
sV\u8efb
I4294
sV\u7701
I558
sV\u9084
I49
sV\u598a
I7205
sV\u8e90
I8697
sV\u8894
I7689
sV\u7796
I7705
sV\u9319
I4876
sV\u5e1b
I1111
sV\u9d1d
I2819
sV\u8721
I6357
sV\u6fa6
I5896
sV\u8b29
I6959
sV\u54ac
I5826
sV\u702f
I6331
sV\u93ae
I122
sV\u6e3b
I8356
sV\u81ba
I2963
sV\u5145
I3550
sV\u7ac8
I2287
sV\u4f51
I4568
sV\u51da
I6156
sV\u5bde
I224
sV\u6165
I6681
sV\u80e4
I3620
sV\u6b69
I7440
sV\u566b
I5219
sV\u73ee
I2542
sV\u7df2
I1345
sV\u61fa
I5465
sV\u6bfe
I6284
sV\u5700
I7461
sV\u7383
I5998
sV\u5104
I3434
sV\u5b08
I2277
sV\u678b
I6374
sV\u980a
I4697
sV\u4f10
I3650
sV\u9597
I7890
sV\u7318
I3542
sV\u5c9d
I4617
sV\u7d1c
I6011
sV\u522e
I3267
sV\u9934
I8677
sV\u62b9
I2401
sV\u8338
I1616
sV\u6cbd
I2581
sV\u96c1
I1431
sV\u53c3
I1932
sV\u90c5
I3684
sV\u5dc7
I698
sV\u7e46
I2551
sV\u784a
I7044
sV\u84cd
I4285
sV\u624e
I7556
sV\u8ed1
I6397
sV\u88d5
I4477
sV\u75d7
I6768
sV\u7fdb
I1213
sV\u79df
I3286
sV\u63e3
I4980
sV\u8462
I6395
sV\u54ed
I2888
sV\u756c
I3679
sV\u7f70
I4467
sV\u85f7
I8599
sV\u8ffb
I8281
sV\u6d7c
I7262
sV\u89ff
I2526
sV\u7601
I4865
sV\u5482
I2170
sV\u7005
I5039
sV\u9184
I4785
sV\u7a09
I5124
sV\u588a
I4514
sV\u640d
I1848
sV\u858c
I4839
sV\u8994
I6390
sV\u7696
I7257
sV\u5f1b
I4003
sV\u7a9e
I6843
sV\u55ac
I1150
sV\u712f
I7823
sV\u7b33
I1819
sV\u6537
I6114
sV\u6f3b
I3494
sV\u80ba
I4627
sV\u693f
I4046
sV\u8abe
I8230
sV\u5641
I8290
sV\u5045
I7463
sV\u71c4
I2310
sV\u5a49
I2402
sV\u65cc
I2012
sV\u69d4
I4282
sV\u7259
I1653
sV\u93d8
I483
sV\u50da
I3821
sV\u7c5d
I4745
sV\u6661
I2829
sV\u87e0
I2960
sV\u6065
I3184
sV\u576b
I7964
sV\u5b73
I5837
sV\u7cf2
I3772
sV\u4f7b
I8544
sV\u60fa
I6004
sV\u7c83
I5626
sV\u9b02
I7895
sV\u7287
I5812
sV\u9106
I6674
sV\u5408
I1256
sV\u6493
I3908
sV\u5d99
I4605
sV\u909b
I2124
sV\u539d
I6558
sV\u969f
I4034
sV\u6e24
I4403
sV\u6428
I6537
sV\u7bad
I1906
sV\u71b1
I2954
sV\u77b5
I8762
sV\u4f3a
I3610
sV\u823c
I4771
sV\u99c1
I4283
sV\u52c7
I3317
sV\u7146
I6966
sV\u95c9
I4860
sV\u81d1
I6082
sV\u9f5a
I6194
sV\u525c
I3252
sV\u76df
I3701
sV\u6ce3
I2032
sV\u8166
I3251
sV\u98eb
I3668
sV\u9eef
I3402
sV\u51f1
I4322
sV\u7070
I1125
sV\u57f5
I8143
sV\u8af7
I5224
sV\u627c
I2263
sV\u5b82
I4687
sV\u9e84
I4486
sV\u8a8c
I5436
sV\u6715
I5994
sV\u7996
I3983
sV\u7f9a
I8314
sV\u6ba2
I3151
sV\u8f25
I7364
sV\u7e2f
I4474
sV\u7433
I3781
sV\u56b4
I349
sV\u85be
I7330
sV\u74c8
I5440
sV\u8e4f
I6335
sV\u8453
I2015
sV\u7d59
I6282
sV\u735d
I6393
sV\u92dc
I8094
sV\u6961
I3845
sV\u88e0
I7160
sV\u586b
I3303
sV\u5473
I419
sV\u6ffa
I390
sV\u7d83
I1405
sV\u9a02
I4326
sV\u5f04
I1252
sV\u7387
I1664
sV\u9006
I3393
sV\u8212
I667
sV\u7d18
I4166
sV\u731c
I1162
sV\u979f
I7529
sV\u8da3
I1071
sV\u4ea5
I3641
sV\u83a7
I5290
sV\u2026
I6658
sV\u9b2c
I646
sV\u70b1
I4985
sV\u9130
I2419
sV\u5232
I8055
sV\u76b5
I8053
sV\u6cb9
I1987
sV\u62bd
I2048
sV\u98c1
I7328
sV\u5dc3
I5173
sV\u764a
I8179
sV\u8acd
I4374
sV\u4fcf
I7218
sV\u6c4e
I3045
sV\u535c
I1106
sV\u77df
I7059
sV\u8a62
I3640
sV\u5aed
I4824
sV\u50f1
I7661
sV\u6d78
I1954
sV\u81fb
I4002
sV\u9980
I3656
sV\u7409
I3364
sV\u9588
I6609
sV\u8b8c
I1421
sV\u6615
I5539
sV\u7896
I7873
sV\u511b
I5381
sV\u7e9a
I4835
sV\u571f
I261
sV\u749e
I4115
sV\u8821
I3150
sV\u6aa2
I2602
sV\u8e25
I7625
sV\u792b
I3290
sV\u51b0
I8
sV\u7533
I480
sV\u6b37
I4714
sV\u613b
I6113
sV\u8eba
I8573
sV\u673f
I6786
sV\u79c0
I446
sV\u5e45
I213
sV\u894b
I8456
sV\u67d4
I2320
sV\u58d6
I3148
sV\u7c59
I1694
sV\u5eda
I2979
sV\u725d
I4470
sV\u93dc
I4990
sV\u8fe4
I3061
sV\u6469
I2319
sV\u85e8
I6998
sV\u596b
I5507
sV\u5f6f
I5740
sV\u9675
I1579
sV\u8c79
I2916
sV\u827d
I8170
sV\u64fe
I3153
sV\u5a00
I3490
sV\u5c04
I1802
sV\u5608
I2464
sV\u5f99
I3597
sV\u929b
I3254
sV\u701c
I8063
sV\u6c24
I2769
sV\u6628
I1456
sV\u5f2e
I5869
sV\u5132
I954
sV\u75b5
I4424
sV\u6fb9
I1490
sV\u8e38
I8415
sV\u803c
I5687
sV\u9bc1
I5196
sV\u9dc5
I8034
sV\u50c7
I7460
sV\u97c9
I2214
sV\u754a
I4373
sV\u6f4e
I8548
sV\u83d1
I5671
sV\u85d5
I1926
sV\u5e58
I4081
sV\u505c
I2436
sV\u74df
I7640
sV\u975e
I146
sV\u60e7
I8146
sV\u9aeb
I4256
sV\u856a
I564
sV\u786c
I5330
sV\u9cef
I7825
sV\u53f1
I3917
sV\u82fb
I3470
sV\u84ff
I3522
sV\u7b01
I6009
sV\u5982
I57
sV\u7d05
I1054
sV\u7709
I1337
sV\u9688
I915
sV\u558a
I8581
sV\u690d
I718
sV\u6311
I2063
sV\u6515
I6842
sV\u8494
I5830
sV\u9f19
I2230
sV\u541f
I101
sV\u779e
I6709
sV\u8729
I4932
sV\u7633
I4631
sV\u91b2
I3589
sV\u8dba
I5660
sV\u87be
I5601
sV\u9047
I2093
sV\u76c8
I1347
sV\u8653
I8007
sV\u64d4
I2690
sV\u5bd6
I6024
sV\u9ed8
I3669
sV\u90dc
I6850
sV\u57de
I7968
sV\u6b61
I537
sV\u8ae0
I1647
sV\u6d65
I1953
sV\u8ce4
I2699
sV\u5c6f
I126
sV\u7fee
I4154
sV\u9371
I6527
sV\u6bf6
I7608
sV\u6dfa
I514
sV\u5b00
I6405
sV\u7f83
I943
sV\u9802
I2809
sV\u7187
I6210
sV\u9206
I7274
sV\u5708
I6534
sV\u6793
I7224
sV\u8012
I5201
sV\u9997
I6676
sV\u939b
I7792
sV\u711c
I5781
sV\u959f
I939
sV\u6b20
I4045
sV\u8fa3
I8272
sV\u6728
I396
sV\u78ad
I4891
sV\u992c
I5362
sV\u74b5
I5181
sV\u8f38
I2647
sV\u60bd
I2995
sV\u5fc3
I93
sV\u7246
I346
sV\u96c9
I2873
sV\u744a
I7979
sV\u6e4e
I4644
sV\u82d1
I1220
sV\u6052
I4031
sV\u5f58
I6991
sV\u515c
I4925
sV\u75df
I3819
sV\u965e
I3987
sV\u8862
I1878
sV\u8266
I3277
sV\u9beb
I8664
sV\u9def
I4684
sV\u7370
I3568
sV\u97f3
I1254
sV\u6f78
I3493
sV\u617c
I4676
sV\u85ff
I4530
sV\u9d84
I2135
sV\u7609
I6225
sV\u9788
I8138
sV\u4e8e
I2782
sV\u6211
I243
sV\u8594
I2396
sV\u5917
I4080
sV\u7a96
I6140
sV\u901d
I1517
sV\u769e
I4836
sV\u68a2
I1706
sV\u8629
I3127
sV\u59ac
I2575
sV\u7d2f
I1257
sV\u633b
I7477
sV\u8cba
I2752
sV\u653f
I1750
sV\u5a41
I4768
sV\u7bc0
I597
sV\u5c45
I293
sV\u9147
I4465
sV\u5649
I3638
sV\u69cc
I4815
sV\u63d0
I1538
sV\u5ad6
I3088
sV\u7e59
I5731
sV\u705d
I4412
sV\u91dc
I5017
sV\u56de
I1285
sV\u6a61
I3055
sV\u87e8
I8250
sV\u5b6b
I1137
sV\u5d6f
I452
sV\u5773
I5198
sV\u807d
I1432
sV\u66fe
I1185
sV\u5c00
I7710
sV\u9f02
I3123
sV\u7687
I139
sV\u5008
I7555
sV\u6a8f
I8145
sV\u890e
I8417
sV\u8712
I2959
sV\u9e97
I118
sV\u5999
I2384
sV\u579d
I7769
sV\u6028
I1827
sV\u592e
I1808
sV\u9234
I3346
sV\u863c
I5479
sV\u9dc1
I3633
sV\u58c3
I6451
sV\u8fcd
I3994
sV\u5858
I1797
sV\u9b5a
I1593
sV\u68e3
I3245
sV\u8f62
I5759
sV\u5fed
I7003
sV\u9aef
I3157
sV\u7470
I2426
sV\u53f5
I2297
sV\u7274
I7708
sV\u8ef7
I4509
sV\u84fb
I5509
sV\u667c
I3387
sV\u5f82
I489
sV\u5586
I8187
sV\u7109
I283
sV\u9088
I599
sV\u8490
I4750
sV\u7d96
I6967
sV\u9919
I4428
sV\u541b
I350
sV\u7b9a
I5421
sV\u8b25
I8371
sV\u8129
I2928
sV\u7c2b
I1509
sV\u63aa
I5443
sV\u99ae
I548
sV\u97b2
I5805
sV\u623f
I190
sV\u81be
I5125
sV\u7ac4
I2931
sV\u5149
I387
sV\u70c8
I230
sV\u4f4d
I116
sV\u6ecc
I937
sV\u64d0
I5414
sV\u62d4
I3382
sV\u5dd6
I185
sV\u96dc
I2992
sV\u6d61
I8310
sV\u6b65
I202
sV\u8ae4
I4130
sV\u9375
I5304
sV\u6df6
I7251
sV\u8979
I7925
sV\u6bfa
I6312
sV\u61fe
I4111
sV\u9e02
I1935
sV\u7787
I7346
sV\u6193
I6453
sV\u5899
I6213
sV\u9f2c
I8224
sV\u582e
I5156
sV\u5632
I3916
sV\u7e42
I8413
sV\u57c7
I8688
sV\u8ecd
I2638
sV\u684e
I6199
sV\u84d1
I1769
sV\u6652
I8289
sV\u82d5
I4168
sV\u9c56
I1765
sV\u5958
I6489
sV\u75db
I2703
sV\u9a5a
I95
sV\u905e
I1963
sV\u8e62
I8238
sV\u67e7
I8433
sV\u8466
I1167
sV\u9deb
I5704
sV\u7570
I167
sV\u52f5
I4919
sV\u8ff7
I971
sV\u6978
I2226
sV\u85fb
I1801
sV\u677c
I3935
sV\u7c01
I5835
sV\u7a05
I3942
sV\u5486
I4820
sV\u7009
I856
sV\u6215
I7349
sV\u5f17
I6630
sV\u6ea2
I3072
sV\u8a25
I4200
sV\u64a6
I7615
sV\u7d2b
I415
sV\u5fac
I5569
sV\u7b2f
I7942
sV\u55b0
I6577
sV\u96b2
I5902
sV\u8cb6
I3713
sV\u653b
I3752
sV\u5c41
I7659
sV\u7bc4
I3708
sV\u5049
I4422
sV\u71c8
I1731
sV\u4e4d
I1180
sV\u8b4f
I4262
sV\u65d0
I3562
sV\u8153
I4818
sV\u63d4
I6505
sV\u99d8
I3112
sV\u5ada
I7742
sV\u97dc
I3060
sV\u50de
I4243
sV\u6c61
I3954
sV\u6069
I1153
sV\u81e8
I13
sV\u5d6b
I4155
sV\u9471
I5171
sV\u76f2
I3947
sV\u4f77
I8453
sV\u8879
I7137
sV\u6afa
I4017
sV\u5e00
I5803
sV\u9d02
I3508
sV\u5804
I6774
sV\u7487
I325
sV\u9706
I3342
sV\u5208
I4691
sV\u688f
I6200
sV\u8b0e
I6206
sV\u6293
I6181
sV\u5b99
I1238
sV\u969b
I111
sV\u559d
I3397
sV\u6e20
I2832
sV\u8aa3
I4006
sV\u84a7
I7701
sV\u7dad
I1000
sV\u4f36
I2927
sV\u65bd
I581
sV\u843c
I1398
sV\u7d42
I1072
sV\u54c7
I6068
sV\u7746
I6754
sV\u4ecb
I3636
sV\u6b4e
I1415
sV\u81d5
I6162
sV\u7cd7
I5726
sV\u9f56
I6195
sV\u76db
I154
sV\u70df
I2585
sV\u8766
I1524
sV\u9eeb
I8483
sV\u816a
I7938
sV\u7c6c
I991
sV\u98ef
I1785
sV\u7670
I7280
sV\u8cf7
I5502
sV\u86fb
I2950
sV\uff01
I5199
sV\u9e80
I7741
sV\u5d82
I1052
sV\u518a
I4393
sV\u8c8c
I1341
sV\u6115
I4960
sV\u7f96
I3809
sV\u9b19
I1851
sV\u501f
I1674
sV\u739e
I8457
sV\u8925
I1739
sV\u7e2b
I1384
sV\u782f
I7247
sV\u9bae
I188
sV\u50b4
I5577
sV\u89ba
I1416
sV\u83be
I6954
sV\u9a43
I4873
sV\u5349
I3343
sV\u8e4b
I1599
sV\u6ccc
I6260
sV\u8253
I5250
sV\u60d4
I7597
sV\u5fd6
I6572
sV\u9ad8
I238
sV\u59da
I3089
sV\u755d
I3142
sV\u6f61
I6560
sV\u6965
I8098
sV\u6369
I4370
sV\u6ff6
I7394
sV\u63fe
I4629
sV\u7587
I464
sV\u5308
I2989
sV\u8a0e
I883
sV\u9d97
I3507
sV\u751c
I4353
sV\u919f
I8048
sV\u4ea1
I2358
sV\u6f20
I1284
sV\u6328
I4600
sV\u9730
I3105
sV\u9134
I3412
sV\u9ec1
I3551
sV\u5bc3
I7491
sV\u55c7
I5594
sV\u4fcb
I7201
sV\u704a
I6055
sV\u6a4e
I8399
sV\u86d1
I6993
sV\u6452
I8047
sV\u7dd7
I821
sV\u5b58
I919
sV\u77db
I3312
sV\u985a
I6720
sV\u555c
I4464
sV\u71df
I85
sV\u925e
I3146
sV\u4f60
I1844
sV\u6be3
I8719
sV\u8c62
I6276
sV\u5ced
I2285
sV\u7d6c
I7839
sV\u56f1
I8418
sV\u50f5
I5825
sV\u7174
I7527
sV\u6b78
I498
sV\u87fb
I1056
sV\u7e01
I7382
sV\u7805
I7287
sV\u6c0d
I6311
sV\u6015
I1657
sV\u5d17
I5807
sV\u7e96
I1326
sV\u789a
I8549
sV\u511f
I6314
sV\u8e21
I6418
sV\u7333
I6435
sV\u8eb6
I7103
sV\u613f
I6663
sV\u82be
I7653
sV\u7fc0
I5661
sV\u9b43
I5264
sV\u5249
I5813
sV\u73c8
I6504
sV\u894f
I5598
sV\u67d0
I6488
sV\u61d4
I6819
sV\u5ed6
I6324
sV\u58da
I2090
sV\u745d
I8370
sV\u95dc
I996
sV\u52de
I274
sV\u5f6b
I1412
sV\u5373
I1105
sV\u9075
I3971
sV\u8a79
I4897
sV\u68fa
I5058
sV\u62fe
I2329
sV\u8181
I8169
sV\u6c08
I2621
sV\u568f
I7591
sV\u9f95
I3036
sV\u6599
I2490
sV\u871a
I5434
sV\u9322
I2411
sV\u77a5
I2308
sV\u9926
I7988
sV\u7da9
I8634
sV\u5c28
I8081
sV\u80ab
I8156
sV\u86af
I5651
sV\u8cb3
I3504
sV\u6b32
I0
sV\u4fb5
I467
sV\u92b7
I719
sV\u7136
I594
sV\u98bb
I2830
sV\u773a
I4531
sV\u8c48
I751
sV\u9850
I8645
sV\u7cd3
I5439
sV\u6458
I1316
sV\u6a5c
I5930
sV\u5ae7
I8192
sV\u63ed
I2062
sV\u69f1
I8229
sV\u75f9
I5890
sV\u977a
I6471
sV\u9d7e
I2772
sV\u8403
I5191
sV\u8a07
I6800
sV\u6986
I2166
sV\u900b
I4259
sV\u530d
I5483
sV\u758e
I137
sV\u5911
I8318
sV\u9c13
I6421
sV\u7b92
I4773
sV\u5f15
I430
sV\u681b
I8641
sV\u6e1f
I5675
sV\u90a0
I3735
sV\u53a2
I7883
sV\u96a4
I5931
sV\u5faa
I3450
sV\u832d
I6231
sV\u62ac
I8610
sV\u68b0
I4994
sV\u8f35
I8243
sV\u6eb4
I8142
sV\u5237
I4850
sV\u9b3d
I6671
sV\u7abc
I7647
sV\u83c2
I6793
sV\u734d
I5233
sV\u52cc
I8473
sV\u7f55
I4645
sV\u885b
I1672
sV\u67da
I2505
sV\u8e5f
I593
sV\u6dde
I7899
sV\u9463
I2217
sV\u79e6
I1364
sV\u5d69
I455
sV\u606b
I7724
sV\u666f
I352
sV\u88f0
I7217
sV\u7277
I6358
sV\u51f6
I3730
sV\u57fa
I235
sV\u7e7f
I7112
sV\u5dfe
I1823
sV\u6100
I6779
sV\u6704
I8708
sV\u8c89
I5277
sV\u928d
I7737
sV\u7910
I8527
sV\u5d93
I4604
sV\u9e95
I6431
sV\u6499
I7047
sV\u861a
I608
sV\u6a9d
I2977
sV\u76a5
I4790
sV\u9826
I6902
sV\u87af
I2969
sV\u8db3
I902
sV\u7c3e
I1470
sV\u65c3
I3973
sV\u71cb
I3896
sV\u9f54
I6514
sV\u6558
I873
sV\u8add
I7912
sV\u6b5c
I6844
sV\u4fdf
I280
sV\u90e1
I885
sV\u7160
I8669
sV\u55e3
I4380
sV\u5be7
I516
sV\u9ce9
I2622
sV\u7d68
I7397
sV\u62ed
I2588
sV\u68f1
I5399
sV\u8a72
I4896
sV\u9076
I2019
sV\u7afd
I3001
sV\u8b07
I4129
sV\u970f
I800
sV\u7a92
I6101
sV\u5e15
I5056
sV\u8b9c
I5294
sV\u5eaa
I1126
sV\u63ac
I407
sV\u8831
I3242
sV\u69b0
I7778
sV\u8e35
I4010
sV\u6fb4
I5158
sV\u6041
I2493
sV\u6645
I6378
sV\u8eca
I277
sV\u59d0
I2516
sV\u9ad2
I4912
sV\u7e55
I6042
sV\u8357
I7445
sV\u66da
I1037
sV\u8f5f
I4986
sV\u6cde
I6157
sV\u5061
I7652
sV\u72e2
I8466
sV\u5c69
I4249
sV\u676f
I541
sV\u89f0
I6874
sV\u8ff4
I332
sV\u7377
I6193
sV\u50f6
I5691
sV\u56fa
I630
sV\u7f7f
I3838
sV\u6200
I1103
sV\u8585
I5476
sV\u918d
I5080
sV\u700c
I8306
sV\u548f
I5552
sV\u9b91
I3605
sV\u7c14
I7244
sV\u851a
I3059
sV\u699d
I8320
sV\u8f1e
I4253
sV\u9122
I3069
sV\u75a5
I7864
sV\u9b26
I7911
sV\u7fa9
I2739
sV\u5e28
I6837
sV\u82ab
I8351
sV\u84af
I4918
sV\u672e
I3231
sV\u6932
I8401
sV\u7336
I125
sV\u753a
I6414
sV\u7f3e
I3585
sV\u8e48
I2617
sV\u74cf
I338
sV\u574e
I2678
sV\u9c54
I8503
sV\u89dd
I5345
sV\u93e1
I770
sV\u95e5
I3806
sV\u7464
I606
sV\u876e
I5149
sV\u8972
I3438
sV\u6df5
I1763
sV\u77f9
I6918
sV\u587c
I6178
sV\u9f7e
I6160
sV\u6182
I1778
sV\u6b86
I6492
sV\u4f09
I5880
sV\u920b
I3526
sV\u778e
I6175
sV\u9e13
I8130
sV\u6017
I8487
sV\u6a1b
I3824
sV\u889c
I6307
sV\u51a2
I3223
sV\u7827
I1468
sV\u5ba6
I2897
sV\u9ea8
I6391
sV\u5daa
I5116
sV\u4e33
I8452
sV\u6cb4
I4857
sV\u9739
I4847
sV\u76b8
I8175
sV\u993d
I8114
sV\u78bc
I8311
sV\u5c3f
I6480
sV\u81c2
I2141
sV\u6545
I397
sV\u97ce
I8060
sV\u7b51
I4958
sV\u99d2
I1683
sV\u7d55
I207
sV\u63d6
I237
sV\u8a5b
I6254
sV\u6fde
I5705
sV\u9663
I2165
sV\u9867
I680
sV\u7be6
I3268
sV\u5f69
I2055
sV\u7dea
I6979
sV\u646f
I6977
sV\u8cf4
I2359
sV\u53f6
I3466
sV\u98fc
I2503
sV\u6504
I1263
sV\u710c
I8729
sV\u7b10
I6139
sV\u7d14
I4572
sV\u8216
I7759
sV\u689d
I961
sV\u8e1e
I3236
sV\u5320
I4100
sV\u9022
I602
sV\u74a5
I7655
sV\u5524
I8560
sV\u5f28
I6894
sV\u83ab
I354
sV\u85af
I5161
sV\u6832
I1655
sV\u91b7
I8742
sV\u7236
I1771
sV\u9dbf
I4957
sV\u7e3e
I4140
sV\u8340
I3366
sV\u914c
I1411
sV\u75cf
I5852
sV\u564e
I4402
sV\u5852
I7852
sV\u86d9
I4491
sV\u88dd
I2391
sV\u7360
I5980
sV\u7564
I4329
sV\u59e7
I7408
sV\u7f68
I2084
sV\u8872
I2925
sV\u9276
I4022
sV\u78fd
I5827
sV\u597c
I5975
sV\u8703
I3133
sV\u8907
I3305
sV\u4e09
I127
sV\u930b
I7687
sV\u500d
I2519
sV\u768e
I2351
sV\u5a11
I4213
sV\u9f13
I1510
sV\u6117
I8222
sV\u8798
I7583
sV\u6d1f
I5567
sV\u4e9e
I2201
sV\u95a4
I2615
sV\u7927
I5074
sV\u61ac
I7172
sV\u8a31
I547
sV\u6db4
I1612
sV\u5137
I5881
sV\u983d
I3817
sV\u5d3f
I447
sV\u6241
I1751
sV\u8cca
I3308
sV\u51cc
I417
sV\u96ce
I8239
sV\u5bd0
I1469
sV\u5dd4
I1283
sV\u8157
I8122
sV\u62d6
I2182
sV\u64da
I3311
sV\u5261
I2851
sV\u7ae6
I3831
sV\u636b
I960
sV\u81ec
I5313
sV\u54fa
I2986
sV\u99fc
I5748
sV\u8385
I5555
sV\u8989
I6701
sV\u548b
I6134
sV\u978d
I555
sV\u5893
I3649
sV\u7a14
I215
sV\u6199
I6575
sV\u4e1c
I7727
sV\u5420
I2632
sV\u9722
I6021
sV\u5224
I2290
sV\u9d26
I1361
sV\u79a9
I8678
sV\u9b2a
I6598
sV\u6f32
I2559
sV\u96b7
I7586
sV\u733a
I7021
sV\u5fbd
I874
sV\u793e
I1942
sV\u8244
I3606
sV\u6ec7
I5768
sV\u964c
I987
sV\u78d3
I7259
sV\u9a54
I1692
sV\u81d9
I2590
sV\u6e5c
I5948
sV\u95e1
I4524
sV\u7460
I4594
sV\u7868
I8180
sV\u816e
I2962
sV\u6df1
I745
sV\u7ffd
I6716
sV\u5e7c
I3394
sV\u8003
I4162
sV\u6b8a
I2604
sV\u570d
I2597
sV\u5d11
I2918
sV\u9813
I2242
sV\u8098
I3933
sV\u6c1b
I3544
sV\u6a1f
I5393
sV\u7023
I4401
sV\u57a2
I2798
sV\u7e27
I6782
sV\u98a8
I140
sV\u5637
I6796
sV\u9139
I8668
sV\u774d
I6753
sV\u91ce
I835
sV\u7b55
I8747
sV\u65d6
I2369
sV\u63da
I1809
sV\u4f5d
I8419
sV\u9063
I2383
sV\u77e2
I3624
sV\u7de6
I5151
sV\u5969
I3890
sV\u7bea
I6369
sV\u86ec
I4810
sV\u8af4
I6741
sV\u55f6
I8592
sV\u9efc
I4641
sV\u7a7f
I1997
sV\u6500
I763
sV\u6908
I8161
sV\u558b
I5602
sV\u968d
I3452
sV\u300e
I6467
sV\u7d10
I4359
sV\u5993
I2120
sV\u821a
I8258
sV\u6e9d
I2198
sV\u74a1
I6678
sV\u78a9
I4529
sV\u85ab
I4319
sV\u6e32
I6704
sV\u7436
I2088
sV\u9dbb
I2807
sV\u723a
I3881
sV\u61c3
I2574
sV\u8344
I7017
sV\u6fc7
I7366
sV\u73cf
I5944
sV\u504e
I1542
sV\u9b54
I3208
sV\u80d9
I5537
sV\u6158
I2360
sV\u6f5c
I7720
sV\u7968
I8561
sV\u66ed
I5746
sV\u6cf1
I2760
sV\u8e72
I3534
sV\u70f9
I3571
sV\u5178
I459
sV\u5f7c
I176
sV\u8103
I6222
sV\u6c86
I4400
sV\u560d
I6236
sV\u930f
I8412
sV\u708e
I2758
sV\u5c11
I706
sV\u9913
I4443
sV\u7e92
I6536
sV\u6717
I1298
sV\u6d1b
I1821
sV\u8f9c
I3403
sV\u56a2
I8659
sV\u99a8
I1022
sV\u862d
I561
sV\u71b8
I6350
sV\u5b3f
I8033
sV\u6849
I7334
sV\u90ce
I1343
sV\u5bd4
I4159
sV\u8757
I5433
sV\u64d6
I7932
sV\u62da
I7273
sV\u4e5d
I210
sV\u8b5f
I6071
sV\u9163
I2331
sV\u5265
I5372
sV\u9f67
I3384
sV\u7ce6
I7801
sV\u5869
I8643
sV\u7aea
I6437
sV\u87ec
I1198
sV\u4ef2
I3058
sV\u8bf4
I7730
sV\u54f6
I8447
sV\u52fa
I5346
sV\u9f91
I8022
sV\u7e10
I8711
sV\u7814
I3691
sV\u6399
I5458
sV\u811a
I2117
sV\u80af
I1194
sV\u6d32
I869
sV\u7736
I5815
sV\u9ebb
I1133
sV\u5dbd
I439
sV\u98bf
I6719
sV\u8640
I5823
sV\u4f46
I1580
sV\u8a48
I7663
sV\u944c
I7458
sV\u70cf
I1964
sV\u5d52
I2286
sV\u9854
I8416
sV\u6258
I1475
sV\u8ddd
I4280
sV\u6c5c
I3990
sV\u97e1
I6261
sV\u52e3
I5543
sV\u7064
I6687
sV\u65ed
I3797
sV\u6ff1
I1327
sV\u9776
I5587
sV\u5278
I5307
sV\u917a
I6337
sV\u5c7c
I7216
sV\u8203
I4944
sV\u6582
I2239
sV\u6f86
I151
sV\u900f
I1496
sV\u738e
I7917
sV\u5915
I535
sV\u6417
I4805
sV\u6e1b
I923
sV\u8c9c
I6328
sV\u681f
I8727
sV\u7223
I8707
sV\u55a2
I6130
sV\u7c27
I1550
sV\u9aa8
I1086
sV\u852d
I522
sV\u8935
I6035
sV\u5437
I6882
sV\u9d3d
I7685
sV\u7cbc
I4909
sV\u85c2
I4347
sV\u6145
I6315
sV\u6b49
I3936
sV\u5ed0
I4588
sV\u7955
I2650
sV\u8457
I1128
sV\u67d6
I7959
sV\u5761
I3207
sV\u5165
I398
sV\u9c67
I6228
sV\u7fe6
I1483
sV\u5b69
I3757
sV\u79ea
I2600
sV\u84ec
I1512
sV\u606f
I1055
sV\u88f4
I1660
sV\u57f6
I3518
sV\u92f8
I6191
sV\u7e7b
I4517
sV\u51fa
I401
sV\u6700
I1183
sV\u8085
I1024
sV\u578b
I6706
sV\u750c
I221
sV\u518f
I7145
sV\u9e91
I4781
sV\u7f10
I8616
sV\u5b93
I3386
sV\u8616
I6170
sV\u76a1
I978
sV\u5720
I1143
sV\u7aa9
I4381
sV\u87ab
I4743
sV\u622e
I3657
sV\u52b9
I2843
sV\u703a
I7545
sV\u7a3e
I8204
sV\u8740
I4685
sV\u63c3
I8263
sV\u6dc7
I4861
sV\u8b48
I4755
sV\u524e
I1070
sV\u9954
I5126
sV\u82d9
I8484
sV\u4fdb
I1039
sV\u8cdd
I4528
sV\u7760
I4145
sV\u53e3
I1172
sV\u7164
I3289
sV\u5de7
I1318
sV\u9ae9
I5966
sV\u64ed
I6226
sV\u826e
I5142
sV\u68f5
I8534
sV\u9676
I2933
sV\u72f9
I4246
sV\u5378
I2038
sV\u907a
I592
sV\u8303
I3028
sV\u8d07
I7919
sV\u6e86
I4051
sV\u970b
I2767
sV\u540d
I300
sV\u910f
I4734
sV\u5e11
I4888
sV\u7c92
I2288
sV\u8398
I6027
sV\u97a0
I5789
sV\u54a2
I8126
sV\u5ea6
I731
sV\u65ac
I3136
sV\u8835
I6330
sV\u69b4
I2483
sV\u9239
I7023
sV\u6641
I6659
sV\u84c2
I3642
sV\u88ca
I2824
sV\u55cc
I6073
sV\u59d4
I488
sV\u66d6
I2204
sV\u60da
I3348
sV\u895f
I1059
sV\u74e2
I2898
sV\u5065
I973
sV\u8ff0
I3327
sV\u89f4
I515
sV\u7f7b
I8011
sV\u9dfc
I8558
sV\u797f
I2407
sV\u8981
I2340
sV\u7a0c
I7680
sV\u5e8f
I438
sV\u9191
I2445
sV\u6d99
I7411
sV\u851e
I8745
sV\u79a1
I5614
sV\u5820
I4176
sV\u9b22
I1340
sV\u5e24
I5867
sV\u88ab
I1610
sV\u972a
I4950
sV\u6d2e
I4670
sV\u6332
I3598
sV\u7f3a
I2716
sV\u8840
I1975
sV\u8e44
I1600
sV\u62c7
I6669
sV\u78cb
I4340
sV\u9a4c
I5047
sV\u7ecf
I7729
sV\u5d4e
I6529
sV\u9050
I1293
sV\u74d3
I8026
sV\u5352
I1048
sV\u9654
I4038
sV\u8dd9
I5922
sV\u99e1
I2368
sV\u7860
I6856
sV\u5ce3
I7841
sV\u7468
I8379
sV\u8d6e
I6964
sV\u61f1
I6090
sV\u67f5
I4503
sV\u7df9
I1123
sV\u73fd
I6679
sV\u6b82
I5517
sV\u8207
I968
sV\u5111
I8721
sV\u9413
I8091
sV\u6a17
I3768
sV\u601b
I6262
sV\u661f
I1026
sV\u98a0
I3827
sV\u7c23
I5696
sV\u5ba2
I575
sV\u9ea4
I2694
sV\u60b0
I2453
sV\u66b4
I2799
sV\u503b
I7838
sV\u563f
I5683
sV\u4ec4
I5118
sV\u81c6
I2510
sV\u87ca
I5225
sV\u7b4d
I1477
sV\u5acc
I568
sV\u7151
I6682
sV\u69d6
I3766
sV\u865f
I2779
sV\u65de
I6363
sV\u5961
I8044
sV\u9c63
I5211
sV\u5f65
I871
sV\u71e6
I6056
sV\u686b
I8539
sV\u6e6f
I2940
sV\u6473
I6433
sV\u9cf8
I7454
sV\u5ffa
I8437
sV\u92fc
I4101
sV\u767f
I7421
sV\u55fe
I5500
sV\u8881
I1113
sV\u6900
I5397
sV\u8e85
I813
sV\u9091
I981
sV\u7110
I7828
sV\u5593
I7572
sV\u9695
I4188
sV\u8816
I4625
sV\u6c99
I1430
sV\u629d
I4775
sV\u78a1
I8450
sV\u5920
I8588
sV\u74a9
I4396
sV\u962a
I4904
sV\u8faf
I5477
sV\u6232
I2004
sV\u5cb9
I8666
sV\u91bb
I4681
sV\u97bf
I5766
sV\u8f44
I4300
sV\u8548
I6125
sV\u79cb
I392
sV\u5c4e
I6580
sV\u8cd9
I5090
sV\u6d58
I8393
sV\u98e1
I2444
sV\u7960
I457
sV\u9ee5
I4466
sV\u7f64
I6034
sV\u60f1
I2022
sV\u8272
I17
sV\u5d78
I5335
sV\u9e7a
I8189
sV\u72fd
I5111
sV\u537c
I8036
sV\u947e
I1859
sV\u8307
I5770
sV\u5011
I7452
sV\u7292
I5723
sV\u611b
I571
sV\u671f
I62
sV\u7327
I2631
sV\u50a6
I8614
sV\u95a8
I1943
sV\u8a2d
I3222
sV\u4f2f
I2173
sV\u7db8
I1452
sV\u513b
I3501
sV\u73bc
I4421
sV\u6841
I1586
sV\u8ac2
I6111
sV\u4fc4
I3457
sV\u80c6
I8565
sV\u7a4d
I759
sV\u5bcc
I1095
sV\u7051
I1370
sV\u92d2
I3176
sV\u7655
I8710
sV\u57d4
I6611
sV\u68d6
I2533
sV\u875f
I4484
sV\u7ae2
I6929
sV\u9367
I8080
sV\u696b
I3238
sV\u76ea
I5001
sV\u6f6f
I4219
sS'<EOP>'
p3
I8771
sV\u9df8
I3100
sV\u5efa
I819
sV\u777f
I253
sV\u6a00
I7558
sV\u8d85
I1226
sV\u6c04
I8090
sV\u8789
I5697
sV\u6608
I5260
sV\u780c
I1191
sV\u5c8f
I5703
sV\u7210
I1281
sV\u8b16
I3577
sV\u4e18
I172
sV\u619d
I8767
sV\u871e
I7635
sV\u7ba1
I1460
sV\u5a20
I6512
sV\u9922
I7403
sV\u5c24
I2525
sV\u9326
I1322
sV\u5628
I7894
sV\u8caf
I2555
sV\u86b3
I7935
sV\u98b7
I6771
sV\u7b36
I3801
sV\u5fb9
I268
sV\u7d3a
I2844
sV\u51bd
I5271
sV\u773e
I1208
sV\u8a40
I5461
sV\u6ec3
I8280
sV\u60c7
I6515
sV\u8648
I8753
sV\u7acb
I135
sV\u984c
I1871
sV\u5f4e
I1857
sV\u5152
I1474
sV\u6e58
I266
sV\u7a60
I3152
sV\u5ee3
I565
sV\u9de5
I2013
sV\u7c64
I1969
sV\u50e7
I570
sV\u69ed
I6010
sV\u8172
I7080
sV\u7ff9
I1390
sV\u5e78
I1264
sV\u6982
I895
sV\u8007
I8656
sV\u9a0b
I5046
sV\u590d
I7728
sV\u7f8e
I662
sV\u7192
I2323
sV\u6817
I3056
sV\u8e98
I6241
sV\u621b
I4596
sV\u809c
I6513
sV\u7e23
I2780
sV\u7027
I1762
sV\u53a6
I7835
sV\u96a8
I749
sV\u55aa
I3160
sV\u892d
I3107
sV\u8331
I2393
sV\u9f39
I7301
sV\u523b
I3321
sV\u913d
I7117
sV\u6749
I809
sV\u794d
I7772
sV\u7351
I7978
sV\u8857
I2107
sV\u6bd6
I6320
sV\u4f59
I2738
sV\u825b
I8031
sV\u6dda
I1381
sV\u67de
I6376
sV\u5d65
I7522
sV\u73e6
I8615
sV\u5769
I7984
sV\u6a6b
I1121
sV\u4fee
I1032
sV\u84f4
I1786
sV\u5bf6
I323
sV\u747f
I8494
sV\u4f83
I3484
sV\u8c85
I4724
sV\u6d04
I4174
sV\u6708
I117
sV\u5b8b
I2051
sV\u790c
I5055
sV\u5793
I1292
sV\u7514
I7983
sV\u8a16
I3322
sV\u4f18
I7376
sV\u609d
I8064
sV\u7aa1
I7356
sV\u7ca5
I3225
sV\u5d24
I5103
sV\u5728
I351
sV\u8bab
I7486
sV\u8daf
I5658
sV\u87b3
I5497
sV\u93bb
I7439
sV\u7c3a
I7595
sV\u95bf
I7468
sV\u8b40
I6000
sV\u6fc3
I1242
sV\u61c7
I1116
sV\u7bcb
I2887
sV\u994c
I3666
sV\u6f58
I1634
sV\u80dd
I3330
sV\u615c
I5092
sV\u9ae1
I6347
sV\u7b60
I2361
sV\u9ce5
I58
sV\u96e9
I4817
sV\u7768
I3118
sV\u8e6e
I7672
sV\u62f1
I236
sV\u8072
I21
sV\u70fd
I3473
sV\u517c
I1215
sV\u8f03
I2346
sV\u8107
I7119
sV\u6286
I6767
sV\u9b0b
I8131
sV\u5211
I3563
sV\u9713
I1595
sV\u7092
I6121
sV\u5415
I7471
sV\u819c
I3300
sV\u58a2
I7987
sV\u9da4
I6396
sV\u97a8
I8732
sV\u882d
I5248
sV\u8435
I6240
sV\u5937
I178
sV\u7fb8
I3085
sV\u88c2
I214
sV\u6649
I3284
sV\u84ca
I5073
sV\u9ece
I1931
sV\u7251
I2755
sV\u7455
I2891
sV\u55d4
I2157
sV\u4e59
I3018
sV\u6cda
I5343
sV\u855f
I7549
sV\u78e2
I8218
sV\u5c65
I2911
sV\u9167
I3043
sV\u5669
I8282
sV\u6d6f
I1757
sV\u83f0
I1784
sV\u6773
I598
sV\u85f4
I6450
sV\u737b
I376
sV\u91fc
I8651
sV\u757f
I3677
sV\u8d81
I2421
sV\u9f8d
I330
sV\u9591
I627
sV\u8d16
I3810
sV\u8b1a
I4479
sV\u679d
I709
sV\u811e
I7480
sV\u5c20
I6905
sV\u5028
I6041
sV\u8cab
I734
sV\u59b9
I3696
sV\u68c3
I1354
sV\u66c7
I4355
sV\u594e
I4973
sV\u4ed7
I1866
sV\u7c60
I711
sV\u7068
I8315
sV\u896e
I7814
sV\u65f1
I3951
sV\u63f5
I6158
sV\u9d76
I2504
sV\u5878
I7967
sV\u8803
I6893
sV\u6f82
I6381
sV\u8607
I728
sV\u6586
I7521
sV\u638a
I1207
sV\u9a0f
I3566
sV\u798e
I6001
sV\u9013
I6355
sV\u5315
I4510
sV\u621f
I2378
sV\u7823
I4341
sV\u7627
I3253
sV\u55a6
I7474
sV\u90a8
I3552
sV\u53aa
I7951
sV\u8f2d
I1983
sV\u64b0
I5122
sV\u8335
I2002
sV\u5e37
I761
sV\u543b
I6224
sV\u973d
I1299
sV\u6d41
I471
sV\u8fc2
I5404
sV\u83ca
I421
sV\u7f4d
I1601
sV\u5ecc
I3985
sV\u52d4
I7844
sV\u6dd6
I6892
sV\u845b
I2423
sV\u6bda
I7186
sV\u825f
I3178
sV\u5d61
I5684
sV\u5b65
I4969
sV\u5169
I1486
sV\u73ea
I783
sV\u84f0
I7757
sV\u82f4
I3892
sV\u5bfa
I572
sV\u8c81
I8389
sV\u8a85
I3468
sV\u6b04
I682
sV\u8089
I2502
sV\u6108
I3319
sV\uff0c
I5
sV\u5b8f
I2823
sV\u9295
I7622
sV\u669d
I1715
sV\u8dab
I4928
sV\u4ead
I651
sV\u81b3
I4093
sV\u95bb
I3643
sV\u703e
I1190
sV\u69c3
I4388
sV\u4e42
I4970
sV\u7dcb
I1654
sV\u5652
I8073
sV\u9354
I2642
sV\u4fd7
I153
sV\u88d9
I1638
sV\u675c
I1973
sV\u59e3
I7798
sV\u7b64
I7605
sV\u7168
I5637
sV\u886e
I3029
sV\u78f9
I6208
sV\u5978
I4481
sV\u577c
I2035
sV\u8707
I6915
sV\u628a
I1393
sV\u788e
I1747
sV\u5411
I532
sV\u8998
I4296
sV\u651b
I8136
sV\u54a6
I7194
sV\u91a8
I5466
sV\u52aa
I5089
sV\u8431
I1911
sV\u65b0
I370
sV\u8235
I8039
sV\u5f37
I2520
sV\u9839
I2636
sV\u963d
I6747
sV\u77bc
I7650
sV\u533f
I4066
sV\u6c41
I5274
sV\u84c6
I6259
sV\u7e4d
I3803
sV\u5fcc
I2908
sV\u7451
I6495
sV\u96d2
I4515
sV\u7255
I3646
sV\u53d4
I1673
sV\u8f57
I4293
sV\u6cd6
I7994
sV\u6ada
I5187
sV\u60de
I7033
sV\u5a65
I8694
sV\u9767
I4593
sV\u74e6
I2616
sV\u8fec
I8571
sV\u6173
I6008
sV\u83f4
I4070
sV\u7f77
I559
sV\u5cf6
I1166
sV\u99f8
I2562
sV\u50fe
I4842
sV\u6e00
I8056
sV\u8389
I7066
sV\u6208
I1631
sV\u7c0c
I3221
sV\u7014
I5971
sV\u891a
I4965
sV\u659d
I2373
sV\u7fa1
I8629
sV\u5824
I1573
sV\u73a9
I3630
sV\u8eab
I556
sV\u82b3
I769
sV\u6532
I527
sV\u7f36
I3901
sV\u5bb9
I1078
sV\u96bb
I2014
sV\u793a
I817
sV\u733e
I4886
sV\u8e40
I1669
sV\u6ac3
I5176
sV\u64c7
I3775
sV\u9650
I1442
sV\u9054
I1738
sV\u6a58
I2293
sV\u85dd
I2801
sV\u7e60
I7694
sV\u5ae3
I2589
sV\u7864
I5164
sV\u67f1
I2375
sV\u61f5
I938
sV\u9f76
I5927
sV\u547c
I1418
sV\u937e
I2651
sV\u4f01
I6382
sV\u8a03
I6831
sV\u6d82
I7013
sV\u8407
I3414
sV\u618a
I4692
sV\u980f
I6545
sV\u7b8e
I4902
sV\u5115
I4900
sV\u4f96
I7589
sV\u8a98
I4726
sV\u849c
I6694
sV\u5da2
I1266
sV\u4e2b
I7053
sV\u51aa
I2238
sV\u6cac
I8454
sV\u60b4
I1865
sV\u7ab8
I4622
sV\u563b
I5929
sV\u6f41
I4190
sV\u4ec0
I3454
sV\u8dc2
I2456
sV\u6945
I8045
sV\u87c6
I4715
sV\u6349
I2705
sV\u81ca
I3495
sV\u7d4d
I8110
sV\u56d0
I6926
sV\u95d2
I6150
sV\u8c57
I5072
sV\u865b
I601
sV\u6e6b
I853
sV\u686f
I4637
sV\u6273
I604
sV\u767b
I790
sV\u8e81
I4788
sV\u6308
I4018
sV\u5f8b
I2652
sV\u5393
I5678
sV\u9095
I3182
sV\u8e16
I8214
sV\u881a
I7940
sV\u649d
I6848
sV\u821e
I688
sV\u5924
I4567
sV\u89af
I5559
sV\u7e36
I1274
sV\u54bd
I1719
sV\u91bf
I7231
sV\u723e
I789
sV\u8944
I2498
sV\u8348
I6069
sV\u73d3
I8261
sV\u6b58
I3477
sV\u98e5
I7906
sV\u92e9
I4828
sV\u7368
I529
sV\u8a6e
I5973
sV\u7af9
I1151
sV\u5b78
I1741
sV\u557c
I1161
sV\u4e01
I1445
sV\u6c82
I5523
sV\u5c0d
I357
sV\u5611
I4033
sV\u5015
I6867
sV\u6d17
I1209
sV\u8b98
I8723
sV\u671b
I499
sV\u859c
I760
sV\u611f
I28
sV\u9fa0
I7534
sV\u99a4
I8099
sV\u6dac
I5033
sV\u67b0
I4804
sV\u8035
I6900
sV\u5d37
I5027
sV\u7bb8
I5018
sV\u573b
I4345
sV\u75bc
I5870
sV\u4fc0
I8003
sV\u8cc2
I4448
sV\u6845
I7109
sV\u86c6
I6553
sV\u6249
I1575
sV\u7c4d
I2553
sV\u7055
I4834
sV\u875b
I8512
sV\u68da
I5997
sV\u5e61
I1978
sV\u7ce2
I5195
sV\u76e6
I7706
sV\u5269
I3524
sV\u8dec
I5203
sV\u696f
I6723
sV\u81f4
I929
sV\u5ef6
I381
sV\u58fa
I360
sV\u52fe
I4791
sV\u9181
I2392
sV\u9785
I2315
sV\u9d89
I292
sV\u620c
I3553
sV\u9116
I5710
sV\u7b9d
I5087
sV\u5a1c
I1941
sV\u9d1e
I3580
sV\u8f2a
I2153
sV\u53ad
I1637
sV\u7b32
I8531
sV\u5fb5
I777
sV\u82b7
I2237
sV\u673a
I5860
sV\u6d3e
I2794
sV\u74c3
I6249
sV\u9644
I3405
sV\u7ac7
I3370
sV\u60cb
I5154
sV\u5f4a
I1814
sV\u66cf
I7105
sV\u6cd3
I4083
sV\u8e54
I4286
sV\u52d7
I6490
sV\u7a5c
I7953
sV\u5edf
I461
sV\u81e1
I8471
sV\u6060
I6692
sV\u6664
I5086
sV\u6c68
I4549
sV\u73ed
I2127
sV\u5e74
I61
sV\u5101
I7590
sV\u9403
I4092
sV\u800b
I5564
sV\u7f8a
I1114
sV\u658e
I7868
sV\u4f15
I8582
sV\u7e1f
I4205
sV\u86a4
I2587
sV\u8ca8
I4088
sV\u502b
I368
sV\u72ac
I2558
sV\u562f
I433
sV\u9931
I4690
sV\u7141
I5531
sV\u634d
I2132
sV\u85ce
I7889
sV\u4ed4
I5963
sV\u9257
I4007
sV\u71d6
I6812
sV\u985b
I1758
sV\u77da
I5758
sV\u5b5d
I3704
sV\u7dde
I8327
sV\u8463
I1288
sV\u8a67
I6474
sV\u706b
I984
sV\u766f
I6281
sV\u98f0
I8368
sV\u7c73
I3247
sV\u9ef4
I8105
sV\u8afc
I5648
sV\u9081
I4540
sV\u5583
I5644
sV\u9685
I218
sV\u7704
I1667
sV\u5b87
I366
sV\u7d08
I1403
sV\u828d
I2140
sV\u6910
I6481
sV\u8e95
I1270
sV\u6f14
I2835
sV\u9016
I1236
sV\u5518
I7401
sV\u91ab
I3755
sV\u8e2a
I3383
sV\u52ad
I6976
sV\u742e
I6366
sV\u5eb5
I4379
sV\u89bb
I6007
sV\u6c3e
I8381
sV\u9744
I972
sV\u7bc7
I1118
sV\u61cb
I6625
sV\u67cf
I1152
sV\u8f54
I4134
sV\u53d7
I909
sV\u80e1
I528
sV\u6160
I7090
sV\u536c
I6758
sV\u946e
I8121
sV\u5970
I6873
sV\u7ef5
I8463
sV\u5f74
I3791
sV\u8076
I7236
sV\u867a
I4829
sV\u7282
I4434
sV\u9b07
I7076
sV\u5c09
I3011
sV\u810b
I6146
sV\u7e8a
I5425
sV\u8d13
I7513
sV\u4e15
I234
sV\u7317
I4778
sV\u5096
I6974
sV\u9598
I7725
sV\u569a
I6083
sV\uff1f
I1632
sV\u81a0
I3400
sV\u6523
I5132
sV\u8da8
I2872
sV\u572f
I6400
sV\u79b0
I3292
sV\u65b8
I2886
sV\u8a3d
I7721
sV\u6bbc
I4621
sV\u51c0
I7875
sV\u98c6
I2534
sV\u7c49
I7517
sV\u624d
I128
sV\u6851
I2673
sV\u8ad2
I484
sV\u4fd4
I7821
sV\u9f5f
I5267
sV\u7cde
I3918
sV\u8563
I1864
sV\u54ee
I4821
sV\u99f0
I7791
sV\u7d73
I228
sV\u6377
I3578
sV\u9381
I6698
sV\u7200
I8203
sV\u7e08
I990
sV\u8d95
I7062
sV\u799d
I7833
sV\u63a1
I1140
sV\u65a5
I4175
sV\u9eb3
I8012
sV\u7932
I3878
sV
I6424
sV\u6336
I7976
sV\u8cbf
I7296
sV\u6f3e
I1899
sV\u9240
I7854
sV\u76c3
I2894
sV\u9444
I3531
sV\u62cb
I1547
sV\u5d4a
I6044
sV\u8a50
I3266
sV\u6ed3
I1228
sV\u8c54
I1349
sV\u97d9
I7487
sV\u7658
I1003
sV\u5adb
I7164
sV\u99dd
I3655
sV\u83e1
I1435
sV\u6260
I6965
sV\u85e5
I632
sV\u71ed
I1511
sV\u976e
I6399
sV\u7df5
I7952
sV\u5c74
I3885
sV\u67f9
I3288
sV\u857a
I5993
sV\u69fd
I3237
sV\u7182
I5605
sV\u5505
I5254
sV\u9807
I4577
sV\u7b86
I1914
sV\u820b
I7043
sV\u7d8a
I8585
sV\u840f
I1436
sV\u5396
I6119
sV\u9698
I3644
sV\u559a
I1981
sV\u989c
I7882
sV\u7c1f
I523
sV\u5f9e
I97
sV\u6827
I7159
sV\u8ea8
I5732
sV\u912d
I3033
sV\u70ac
I3404
sV\u9b31
I508
sV\u7ab0
I7465
sV\u5e33
I1320
sV\u68bc
I3733
sV\u9bc6
I8735
sV\u5ec8
I4638
sV\u614d
I4800
sV\u89d2
I1970
sV\u9a5b
I1945
sV\u9c5f
I6888
sV\u4f69
I1702
sV\u6dea
I1260
sV\u746f
I5042
sV\u7e73
I3977
sV\u9cf4
I47
sV\u86f8
I5786
sV\u88fc
I7046
sV\u4ffe
I5603
sV\u3002
I11
sV\u7504
I4119
sV\uff08
I6422
sV\u8a91
I6524
sV\u7699
I4220
sV\u5718
I1816
sV\u591c
I1192
sV\u9e1e
I414
sV\u64a5
I2007
sV\u50ad
I3206
sV\u5ab1
I7214
sV\u7832
I6006
sV\u5cb5
I7863
sV\u6236
I1029
sV\u643a
I6429
sV\u8dbf
I5217
sV\u6e3e
I1311
sV\u5a46
I4212
sV\u5c4a
I6365
sV\u65cf
I787
sV\u96d9
I1362
sV\u795c
I3663
sV\u82e1
I6726
sV\u6f68
I855
sV\u516c
I549
sV\u5b70
I927
sV\u7cf5
I4632
sV\u66f9
I2955
sV\u847a
I4673
sV\u68fd
I8396
sV\u5201
I2325
sV\u9703
I8059
sV\u7a86
I6203
sV\u668e
I4157
sV\u8f13
I5565
sV\u5296
I6841
sV\u9798
I4104
sV\u7b1b
I394
sV\u83a0
I5188
sV\u6723
I5551
sV\u85a4
I3665
sV\u8fa8
I2686
sV\u902d
I7602
sV\u71ac
I3444
sV\u552f
I2538
sV\u7db4
I2250
sV\u67b8
I4844
sV\u69bc
I2972
sV\u7241
I6937
sV\u55c4
I5972
sV\u9ac6
I8357
sV\u9cca
I8459
sV\u604d
I3347
sV\u6a51
I5729
sV\u88d2
I6666
sV\u6c55
I6827
sV\u9157
I6257
sV\u72d6
I1160
sV\u9b5b
I6994
sV\u74da
I1041
sV\u8763
I4041
sV\u4e69
I7395
sV\u736b
I5749
sV\u6cea
I4085
sV\u756f
I4060
sV\u7f73
I4868
sV\u9df4
I6212
sV\u6177
I3868
sV\u6b7b
I77
sV\u5e87
I3904
sV\u878d
I1083
sV\u660c
I247
sV\u6c10
I3963
sV\u6a14
I8348
sV\u7199
I252
sV\u5018
I4321
sV\u931a
I3805
sV\u7f9d
I7141
sV\u991e
I2778
sV\u65a1
I5075
sV\u63a5
I1074
sV\u712e
I5261
sV\u5db1
I5062
sV\u5bb5
I275
sV\u6536
I494
sV\u8cbb
I2677
sV\u633a
I3823
sV\u8abf
I824
sV\u693e
I8434
sV\u5742
I4086
sV\u62cf
I3196
sV\u8c50
I1005
sV\u68d3
I6656
sV\u8a54
I1018
sV\u56d7
I4267
sV\u7058
I2136
sV\u6264
I8083
sV\u77ed
I1718
sV\u566c
I5095
sV\u7df1
I2853
sV\u61f9
I8395
sV\u5501
I6627
sV\u9003
I1409
sV\u5305
I2220
sV\u9e07
I4760
sV\u7d86
I3418
sV\u840b
I1853
sV\u7b8a
I4890
sV\u618e
I2332
sV\u8813
I5736
sV\u6f92
I449
sV\u9098
I7488
sV\u539a
I2751
sV\u7a1f
I2766
sV\u82a4
I7374
sV\u6e27
I8562
sV\u88a8
I5802
sV\u542b
I762
sV\u8139
I8158
sV\u60b8
I4108
sV\u6ebc
I2126
sV\u54c0
I1585
sV\u97c2
I6274
sV\u7345
I5473
sV\u7949
I4841
sV\u58c8
I4682
sV\u9bca
I7180
sV\u8fd2
I8695
sV\u6b55
I5814
sV\u5f5d
I4556
sV\u9a5f
I2122
sV\u79de
I8392
sV\u67e2
I5300
sV\u6de6
I8014
sV\u726f
I7666
sV\u5ff2
I8100
sV\u9af4
I2596
sV\u6677
I4222
sV\u80f8
I1874
sV\u8efc
I5724
sV\u9481
I7670
sV\u7500
I7195
sV\u5183
I6956
sV\u9285
I1549
sV\u5f87
I4171
sV\u868d
I5819
sV\u670c
I8521
sV\u8a95
I3139
sV\u6b14
I8375
sV\u7099
I2624
sV\u5118
I1562
sV\u921a
I5266
sV\u981e
I8174
sV\u8622
I2115
sV\u68a9
I6173
sV\u95ab
I4730
sV\u8a2a
I837
sV\u56ad
I5422
sV\u5cb1
I445
sV\u99b3
I2121
sV\u7e32
I3711
sV\u5ab5
I5843
sV\u6436
I3925
sV\u623a
I5386
sV\u71c3
I3353
sV\u5642
I5014
sV\u5c46
I6411
sV\u65cb
I1100
sV\u874c
I7691
sV\u63cf
I2478
sV\u9edd
I5530
sV\u5bdf
I2669
sV\u84e1
I8414
sV\u82e5
I653
sV\u88e9
I7072
sV\u6968
I3240
sV\u906e
I1807
sV\u5d70
I6380
sV\u8476
I7304
sV\u60f9
I1314
sV\u4f7c
I4476
sV\u887e
I1582
sV\u5401
I2481
sV\u7682
I4378
sV\u5205
I8040
sV\u9f07
I2957
sV\u7a8a
I8411
sV\u8913
I5662
sV\u7d1b
I1051
sV\u529a
I4744
sV\u9f9c
I68
sV\u589e
I2834
sV\u552b
I5630
sV\u77ac
I4408
sV\u532f
I588
sV\u7db0
I2294
sV\u7bb4
I1643
sV\u61b8
I6821
sV\u6fbc
I4519
sV\u7441
I1829
sV\u7849
I5134
sV\u80ce
I2712
sV\u8ed2
I740
sV\u72da
I7735
sV\u756b
I1339
sV\u6aea
I3898
sV\u736f
I4137
sV\u50ee
I4357
sV\u9df0
I5873
sV\u6777
I2180
sV\u6d7b
I8736
sV\u6b7f
I3125
sV\u9781
I8362
sV\u7600
I6585
sV\u5283
I4658
sV\u9185
I2909
sV\u5c87
I8150
sV\u858d
I6829
sV\u9716
I3015
sV\u7d9d
I7848
sV\u67a1
I7748
sV\u8f26
I1863
sV\u892a
I2438
sV\u90af
I4406
sV\u7d32
I5784
sV\u6736
I7478
sV\u88bf
I3270
sV\u6b3e
I2326
sV\u9640
I4375
sV\u72c3
I7031
sV\u9044
I6106
sV\u7cc7
I7041
sV\u844c
I8750
sV\u60cf
I6746
sV\u8e50
I6984
sV\u6ad3
I2451
sV\u7258
I4640
sV\u5edb
I5593
sV\u7c5c
I2511
sV\u58df
I4440
sV\u81e5
I1950
sV\u6064
I5878
sV\u936e
I7292
sV\u7ff1
I3530
sV\u5e70
I3525
sV\u9d72
I1968
sV\u8776
I1315
sV\u8b7e
I8308
sV\u7f86
I3310
sV\u5b09
I4184
sV\u860b
I1328
sV\u798a
I3595
sV\u638e
I6849
sV\u4f11
I639
sV\u8a13
I3109
sV\u6d92
I8353
sV\u9298
I3087
sV\u7e1b
I3262
sV\u8aa8
I5842
sV\u9935
I5121
sV\u8339
I5240
sV\u4e3b
I1444
sV\u6cbc
I2050
sV\u56c0
I3537
sV\u7145
I7209
sV\u7b49
I867
sV\u5ac8
I8550
sV\u99ca
I5236
sV\u654d
I4611
sV\u6f51
I4662
sV\u8dd2
I4650
sV\u77d6
I7537
sV\u8263
I1979
sV\u65e2
I1645
sV\u53ee
I5946
sV\u9ef0
I8385
sV\u5df2
I616
sV\u98f4
I6002
sV\u8cfc
I7564
sV\u687f
I7347
sV\u9085
I4704
sV\u7104
I6997
sV\u5d87
I3599
sV\u7b08
I2912
sV\u8e91
I2018
sV\u6914
I6881
sV\u901a
I1062
sV\u9a1e
I7134
sV\u66a1
I7074
sV\u8e26
I6218
sV\u97ab
I7575
sV\u91af
I5394
sV\u722e
I8646
sV\u6636
I4526
sV\u89bf
I5067
sV\u6a3e
I5485
sV\u5442
I2709
sV\u7dc7
I4203
sV\u9b48
I6253
sV\u584a
I4583
sV\u6bd3
I5978
sV\u7d5c
I5542
sV\u6760
I6244
sV\u80e5
I297
sV\u6164
I6110
sV\u5f70
I458
sV\u9c72
I8578
sV\u78f5
I4416
sV\u5974
I2475
sV\u5005
I6733
sV\u9d07
I5178
sV\u7e86
I6806
sV\u5a09
I1891
sV\u870b
I5498
sV\u4e11
I6508
sV\u6c92
I1630
sV\u9398
I7187
sV\uff1b
I6449
sV\u509a
I7202
sV\u5a9e
I7518
sV\u6d27
I5743
sV\u4ea6
I825
sV\u79b4
I5488
sV\u8239
I1459
sV\u8c3d
I6667
sV\u6dbc
I227
sV\u51c4
I6484
sV\u7a49
I2997
sV\u8cd2
I2333
sV\u6855
I8346
sV\u76d6
I7763
sV\u5259
I7829
sV\u70da
I6590
sV\u5c5d
I7930
sV\u64e2
I3826
sV\u8d67
I6855
sV\u776b
I4240
sV\u52ee
I7845
sV\u7b73
I6836
sV\u99f4
I7971
sV\u6577
I3476
sV\u83f8
I6016
sV\u8dfc
I2279
sV\u5287
I3480
sV\u9589
I1304
sV\u6010
I8221
sV\u6614
I880
sV\u9916
I8259
sV\u521c
I7288
sV\u8b22
I8568
sV\u6fa5
I5025
sV\u98ab
I6628
sV\u9eaf
I6242
sV\u51b1
I5562
sV\u7332
I8252
sV\u8ab7
I6989
sV\u6936
I5186
sV\u653e
I785
sV\u5146
I2197
sV\u68cb
I2605
sV\u574a
I1636
sV\u6ecf
I7342
sV\u8654
I1009
sV\u5ad7
I4851
sV\u9dd9
I3023
sV\u50db
I8701
sV\u8fe5
I1571
sV\u85e9
I345
sV\u5a6c
I6521
sV\u9d6e
I6718
sV\u5674
I1707
sV\u6df9
I286
sV\u857e
I6749
sV\u9207
I4071
sV\u880b
I6631
sV\u8e0f
I618
sV\u6d8e
I3345
sV\u6392
I410
sV\u7a17
I2865
sV\u5996
I2406
sV\u701b
I3491
sV\u929c
I476
sV\u761f
I7387
sV\u88a0
I6372
sV\u6c23
I393
sV\u84a8
I557
sV\u9b2d
I6447
sV\u7aac
I6263
sV\u9131
I4780
sV\u70b0
I6813
sV\u5433
I1173
sV\u76b4
I4612
sV\u6cb8
I3673
sV\u62bc
I3446
sV\u7941
I4325
sV\u58c0
I6773
sV\u7f45
I1729
sV\u5ec4
I3555
sV\u91c6
I7200
sV\u8dce
I2698
sV\u6755
I6054
sV\u9a57
I1
sV\u79d6
I2867
sV\u905b
I7113
sV\u965f
I876
sV\u75de
I8728
sV\u61e6
I3756
sV\u786b
I5838
sV\u9aec
I7813
sV\u5dee
I1138
sV\u7473
I6791
sV\u53f2
I2395
sV\u8cf8
I5192
sV\u5d83
I7819
sV\u7508
I6951
sV\u8a8d
I2143
sV\u4f8f
I4518
sV\u6110
I7124
sV\u6714
I451
sV\u5d18
I7271
sV\u9e1a
I1872
sV\u68a1
I4874
sV\u8a22
I7648
sV\u6ea5
I3239
sV\u8026
I4343
sV\u64a9
I2480
sV\u862a
I8009
sV\u5aad
I3652
sV\u7c2e
I8596
sV\u7232
I371
sV\u56b5
I4602
sV\u81bb
I2028
sV\u6e3a
I2348
sV\u87bf
I3727
sV\u69cb
I3443
sV\u8b4c
I8300
sV\u8150
I3340
sV\u65d3
I5357
sV\u9cd9
I6982
sV\u57df
I2023
sV\u88e1
I6587
sV\u6960
I5584
sV\u6f64
I2608
sV\u7aed
I1066
sV\u9c6e
I8140
sV\u70f1
I8074
sV\u62fd
I3325
sV\u5409
I1034
sV\u8513
I894
sV\u6292
I5432
sV\u5896
I5301
sV\u9d98
I8018
sV\u5e9a
I2708
sV\u771f
I159
sV\u85a8
I5241
sV\u592b
I2156
sV\u9a2d
I4011
sV\u7bac
I1767
sV\u9031
I5445
sV\u5533
I2289
sV\u8c39
I7272
sV\u6db8
I4646
sV\u9ac2
I8240
sV\u7e45
I4435
sV\u7449
I8054
sV\u55c8
I6164
sV\u96ca
I4214
sV\u82d2
I4065
sV\u5c59
I8631
sV\u525d
I3798
sV\u7f6f
I8510
sV\u6b77
I962
sV\u83fc
I4362
sV\u677f
I2671
sV\u7a00
I362
sV\u6210
I374
sV\u6414
I2577
sV\u9b16
I6833
sV\u5e18
I4787
sV\u501c
I5049
sV\u971e
I187
sV\u96b3
I4258
sV\u88b7
I3275
sV\u6b36
I8097
sV\u4fb9
I8253
sV\u82bb
I4907
sV\u6d3a
I6174
sV\u84bf
I1589
sV\u673e
I6559
sV\u9a40
I5884
sV\u884c
I10
sV\u4f4e
I427
sV\u52db
I5845
sV\u91dd
I2103
sV\u705c
I8649
sV\u4ee3
I1141
sV\u8de5
I8271
sV\u6668
I418
sV\u79ed
I6788
sV\u9172
I2312
sV\u5474
I7225
sV\u61fd
I3441
sV\u5d05
I8184
sV\u7386
I7386
sV\u5709
I5226
sV\u758a
I607
sV\u6f8e
I6670
sV\u6192
I8291
sV\u721b
I1614
sV\u579e
I5672
sV\u8aa0
I481
sV\u6e23
I6664
sV\u6027
I2664
sV\u86a8
I7061
sV\u992d
I7989
sV\u813d
I7543
sV\u60bc
I3299
sV\u7b41
I7948
sV\u95ca
I1737
sV\u8fce
I39
sV\u6555
I4581
sV\u9857
I3874
sV\u7bd6
I8748
sV\u5f59
I124
sV\u925b
I1952
sV\u7dda
I2057
sV\u77de
I7755
sV\u8e63
I8730
sV\u69e2
I8400
sV\u7a6b
I3799
sV\u7c6f
I7562
sV\u6877
I5324
sV\u8ef8
I2096
sV\u80fc
I5600
sV\u5f83
I5522
sV\u7d04
I1625
sV\u7708
I4906
sV\u888d
I1651
sV\u690c
I7381
sV\u8291
I6619
sV\u6310
I8216
sV\u6514
I2424
sV\u9a16
I3625
sV\u5f18
I952
sV\u511c
I7022
sV\u8822
I4931
sV\u9bab
I2363
sV\u9daf
I1356
sV\u7e2e
I4410
sV\u97b3
I4991
sV\u7032
I2291
sV\u89b7
I2343
sV\u4eb9
I5883
sV\u85bf
I8233
sV\u9d44
I6478
sV\u9748
I175
sV\u6bcb
I5617
sV\u544a
I1843
sV\u6dcf
I8285
sV\u4e4e
I4023
sV\u8350
I7435
sV\u67d3
I184
sV\u7f58
I4867
sV\u53db
I4499
sV\u90dd
I8339
sV\u715c
I7574
sV\u55df
I3332
sV\u8ae1
I4534
sV\u6b60
I5897
sV\u6d64
I6189
sV\u86e9
I2335
sV\u5370
I1534
sV\u9072
I1831
sV\u8a76
I6025
sV\u6ef9
I4204
sV\u8c7a
I3929
sV\u5a01
I270
sV\u9f03
I5028
sV\u5c05
I2626
sV\u5609
I831
sV\u748a
I7950
sV\u8d0f
I2147
sV\u8713
I2584
sV\u6092
I3969
sV\u731b
I3834
sV\u919c
I4473
sV\u751f
I3
sV\u6f23
I533
sV\u6127
I2073
sV\u982d
I663
sV\u79ac
I7007
sV\u9435
I2233
sV\u75b4
I5200
sV\u803d
I3639
sV\u5bc0
I6778
sV\u98c2
I6275
sV\u92c6
I8277
sV\u684d
I8632
sV\u6251
I6556
sV\u9957
I4566
sV\u5e59
I4241
sV\u935b
I4102
sV\u76de
I2070
sV\u64ea
I8486
sV\u99ec
I6838
sV\u6977
I4480
sV\u8ff8
I2462
sV\u637b
I2298
sV\u81fc
I3556
sV\u7c00
I3720
sV\u5883
I168
sV\u5687
I4199
sV\u9189
I518
sV\u6e0c
I8557
sV\u8591
I3572
sV\u6214
I7535
sV\u5818
I7884
sV\u9b1a
I1525
sV\u911e
I7668
sV\u8526
I912
sV\u61a9
I806
sV\u5fad
I4758
sV\u9aaf
I4911
sV\u792e
I7355
sV\u90b3
I7188
sV\u6d36
I2106
sV\u84bb
I6943
sV\u6b3a
I2785
sV\u82bf
I8331
sV\u613e
I7802
sV\u9a44
I2082
sV\u5546
I1812
sV\u534a
I946
sV\u8e4c
I6172
sV\u8450
I7540
sV\u99d9
I5876
sV\u97dd
I4579
sV\u52df
I4177
sV\u8de1
I302
sV\u6c60
I509
sV\u6a64
I7524
sV\u6068
I969
sV\u5e6c
I6165
sV\u75f1
I6930
sV\u5470
I3709
sV\u69f9
I7456
sV\u817e
I7762
sV\u9803
I1278
sV\u7586
I262
sV\u5109
I3380
sV\u4f0d
I4308
sV\u8a0f
I5451
sV\u6792
I5337
sV\u7e17
I8209
sV\u741b
I5621
sV\u5b9a
I90
sV\u969c
I2046
sV\u721f
I6496
sV\u519e
I8330
sV\u8ca0
I540
sV\u8aa4
I2630
sV\u6627
I2509
sV\u5c2b
I5259
sV\u74b0
I1703
sV\u72b4
I8237
sV\u7d41
I6109
sV\u5ac4
I6074
sV\u7149
I2670
sV\u93ca
I8149
sV\u6551
I4013
sV\u87d2
I7121
sV\u6355
I3950
sV\u945b
I6255
sV\u7bda
I4740
sV\u925f
I8698
sV\u8863
I611
sV\u8667
I3398
sV\u65e6
I737
sV\u7c6b
I8566
sV\u63ea
I4664
sV\u9eec
I8500
sV\u59ee
I655
sV\u88f8
I5576
sV\u647b
I3291
sV\u627f
I644
sV\u7d00
I3234
sV\u5983
I1825
sV\u7b04
I7146
sV\u8e8d
I2922
sV\u7899
I7425
sV\u571c
I4561
sV\u901e
I2389
sV\u8e22
I7918
sV\uff5d
I8602
sV\u822a
I4050
sV\u5ead
I265
sV\u6a3a
I2313
sV\u83bf
I7282
sV\u5e42
I5836
sV\u9b44
I1177
sV\u77c7
I5734
sV\u9148
I5859
sV\u6dcb
I2540
sV\u524a
I1402
sV\u6bcf
I950
sV\u8354
I1994
sV\u5fd7
I949
sV\u98d9
I3818
sV\u55db
I7018
sV\u96dd
I4972
sV\u53df
I2941
sV\u8ce1
I3335
sV\u6b64
I70
sV\u6168
I3869
sV\u5f6c
I6691
sV\u9672
I3956
sV\u72f5
I6983
sV\u5374
I1395
sV\u68f9
I2610
sV\u807e
I3866
sV\u5c01
I1690
sV\u7e82
I5310
sV\u9707
I269
sV\u7486
I5809
sV\u5009
I3336
sV\u8d0b
I6822
sV\u4e0d
I383
sV\u8b0f
I5561
sV\u9998
I4927
sV\u5a9a
I1640
sV\u509e
I6339
sV\u8da0
I7316
sV\u4ea2
I4905
sV\u6727
I1373
sV\u81a8
I7106
sV\u5133
I6732
sV\u8839
I3687
sV\u69b8
I5970
sV\u5bc4
I908
sV\u51c8
I2845
sV\u6e4d
I4946
sV\u88ce
I7479
sV\u6451
I6234
sV\u9f57
I5926
sV\u7cd6
I6517
sV\u7ada
I6456
sV\u64e6
I6108
sV\u62ea
I6573
sV\u7b6f
I1976
sV\u89f8
I1556
sV\u657b
I5619
sV\u4e8b
I700
sV\u8d8d
I5459
sV\u6014
I8325
sV\u7b99
I6279
sV\u5a18
I1897
sV\u991a
I6379
sV\u931e
I7733
sV\u6fa1
I6402
sV\u69a5
I7822
sV\u8726
I8365
sV\u63a9
I595
sV\u98af
I1566
sV\u7b2e
I5177
sV\u92b3
I3488
sV\u7532
I2137
sV\u51b5
I7904
sV\u8cb7
I1957
sV\u6f36
I6579
sV\u633e
I2934
sV\u7ac3
I7437
sV\u5d42
I5038
sV\u5746
I8583
sV\u6ecb
I1485
sV\u8650
I4822
sV\u62d3
I260
sV\u5cd7
I8455
sV\u56db
I208
sV\u745c
I4507
sV\u89e5
I1410
sV\ue864
I7739
sV\u83e9
I5446
sV\u5c6c
I2191
sV\u9b6e
I5442
sV\u77f1
I8125
sV\u5670
I6182
sV\u5074
I886
sV\u6bf9
I7998
sV\u5f01
I4335
sV\u9a03
I5904
sV\u718a
I3039
sV\u6592
I5481
sV\u701f
I1743
sV\u8ea0
I6087
sV\u6a23
I1333
sV\u88a4
I7949
sV\u82a8
I7947
sV\u5e2b
I2687
sV\u582f
I2227
sV\u76b0
I6891
sV\u5233
I5992
sV\u70b4
I7379
sV\u8b39
I5244
sV\u853d
I722
sV\u64bc
I2097
sV\u9dc2
I5505
sV\u7945
I5110
sV\u97c6
I1628
sV\u6751
I585
sV\u6155
I1259
sV\u9c57
I435
sV\u965b
I1156
sV\u73de
I6233
sV\u8a63
I1302
sV\u67e6
I8288
sV\u7e6b
I1272
sV\u9cec
I7384
sV\u786f
I3334
sV\u5bee
I3301
sV\u96f0
I2771
sV\u90f4
I4663
sV\u4ff6
I5214
sV\u8af8
I1069
sV\u667b
I5741
sV\u84fc
I2265
sV\u9e81
I5624
sV\u5b83
I5423
sV\u4f8b
I3906
sV\u300a
I6423
sV\u8c8d
I5140
sV\u6d0c
I6680
sV\u8691
I6413
sV\u6710
I4795
sV\u6114
I3693
sV\u9e16
I6563
sV\u7a99
I8248
sV\u921e
I2210
sV\u7a2e
I536
sV\u56b1
I7286
sV\u7432
I6248
sV\u50b5
I4500
sV\u8db7
I7677
sV\u87bb
I4708
sV\u81bf
I6539
sV\u623e
I4185
sV\u5646
I4458
sV\u9348
I6641
sV\u8154
I6863
sV\u7b58
I8620
sV\u755c
I4456
sV\u51df
I7684
sV\u6f60
I6304
sV\u6368
I2300
sV\u7ced
I7606
sV\u5d6c
I1280
sV\u76f1
I5745
sV\u5770
I375
sV\u8e76
I5012
sV\u887a
I8536
sV\u827e
I1685
sV\u5e01
I6045
sV\u9b03
I4587
sV\u5805
I2692
sV\u7686
I1736
sV\u708a
I2728
sV\u890f
I7260
sV\u6a8e
I2808
sV\u6492
I2815
sV\u7d17
I1325
sV\u5e96
I3249
sV\u8fa0
I7169
sV\u6b23
I3675
sV\u89a4
I8168
sV\u83a8
I7563
sV\u9c2d
I7253
sV\u7dac
I914
sV\u77b0
I1076
sV\u5333
I2037
sV\u9035
I3771
sV\u843d
I335
sV\u65bc
I2089
sV\u7e41
I860
sV\u96c6
I2967
sV\u53c8
I1329
sV\u90ca
I486
sV\u6c4d
I3140
sV\u6055
I5329
sV\u78da
I4548
sV\u545d
I8029
sV\u8b63
I7101
sV\u6ce2
I774
sV\u66e6
I4712
sV\u7f6b
I6919
sV\u5aee
I6615
sV\u7373
I8744
sV\u54f2
I254
sV\u6d77
I209
sV\u4ef6
I6599
sV\u677b
I5234
sV\u617f
I8593
s.